
watch_temp_pressure.elf:     file format elf32-avr

Sections:
Idx Name          Size      VMA       LMA       File off  Algn
  0 .data         000002f0  00800100  0000189c  00001930  2**0
                  CONTENTS, ALLOC, LOAD, DATA
  1 .text         0000189c  00000000  00000000  00000094  2**1
                  CONTENTS, ALLOC, LOAD, READONLY, CODE
  2 .bss          000000ce  008003f0  008003f0  00001c20  2**0
                  ALLOC
  3 .comment      00000030  00000000  00000000  00001c20  2**0
                  CONTENTS, READONLY
  4 .note.gnu.avr.deviceinfo 00000040  00000000  00000000  00001c50  2**2
                  CONTENTS, READONLY
  5 .debug_aranges 000002e0  00000000  00000000  00001c90  2**0
                  CONTENTS, READONLY, DEBUGGING
  6 .debug_info   000036a3  00000000  00000000  00001f70  2**0
                  CONTENTS, READONLY, DEBUGGING
  7 .debug_abbrev 00001026  00000000  00000000  00005613  2**0
                  CONTENTS, READONLY, DEBUGGING
  8 .debug_line   00001dc7  00000000  00000000  00006639  2**0
                  CONTENTS, READONLY, DEBUGGING
  9 .debug_frame  00000848  00000000  00000000  00008400  2**2
                  CONTENTS, READONLY, DEBUGGING
 10 .debug_str    00000aa8  00000000  00000000  00008c48  2**0
                  CONTENTS, READONLY, DEBUGGING
 11 .debug_loc    00001dc4  00000000  00000000  000096f0  2**0
                  CONTENTS, READONLY, DEBUGGING
 12 .debug_ranges 000002c0  00000000  00000000  0000b4b4  2**0
                  CONTENTS, READONLY, DEBUGGING

Disassembly of section .text:

00000000 <__vectors>:
       0:	0c 94 34 00 	jmp	0x68	; 0x68 <__ctors_end>
       4:	0c 94 51 00 	jmp	0xa2	; 0xa2 <__bad_interrupt>
       8:	0c 94 51 00 	jmp	0xa2	; 0xa2 <__bad_interrupt>
       c:	0c 94 51 00 	jmp	0xa2	; 0xa2 <__bad_interrupt>
      10:	0c 94 51 00 	jmp	0xa2	; 0xa2 <__bad_interrupt>
      14:	0c 94 51 00 	jmp	0xa2	; 0xa2 <__bad_interrupt>
      18:	0c 94 51 00 	jmp	0xa2	; 0xa2 <__bad_interrupt>
      1c:	0c 94 51 00 	jmp	0xa2	; 0xa2 <__bad_interrupt>
      20:	0c 94 51 00 	jmp	0xa2	; 0xa2 <__bad_interrupt>
      24:	0c 94 51 00 	jmp	0xa2	; 0xa2 <__bad_interrupt>
      28:	0c 94 51 00 	jmp	0xa2	; 0xa2 <__bad_interrupt>
      2c:	0c 94 51 00 	jmp	0xa2	; 0xa2 <__bad_interrupt>
      30:	0c 94 51 00 	jmp	0xa2	; 0xa2 <__bad_interrupt>
      34:	0c 94 51 00 	jmp	0xa2	; 0xa2 <__bad_interrupt>
      38:	0c 94 51 00 	jmp	0xa2	; 0xa2 <__bad_interrupt>
      3c:	0c 94 51 00 	jmp	0xa2	; 0xa2 <__bad_interrupt>
      40:	0c 94 51 00 	jmp	0xa2	; 0xa2 <__bad_interrupt>
      44:	0c 94 51 00 	jmp	0xa2	; 0xa2 <__bad_interrupt>
      48:	0c 94 51 00 	jmp	0xa2	; 0xa2 <__bad_interrupt>
      4c:	0c 94 51 00 	jmp	0xa2	; 0xa2 <__bad_interrupt>
      50:	0c 94 51 00 	jmp	0xa2	; 0xa2 <__bad_interrupt>
      54:	0c 94 51 00 	jmp	0xa2	; 0xa2 <__bad_interrupt>
      58:	0c 94 51 00 	jmp	0xa2	; 0xa2 <__bad_interrupt>
      5c:	0c 94 51 00 	jmp	0xa2	; 0xa2 <__bad_interrupt>
      60:	0c 94 51 00 	jmp	0xa2	; 0xa2 <__bad_interrupt>
      64:	0c 94 51 00 	jmp	0xa2	; 0xa2 <__bad_interrupt>

00000068 <__ctors_end>:
      68:	11 24       	eor	r1, r1
      6a:	1f be       	out	0x3f, r1	; 63
      6c:	cf ef       	ldi	r28, 0xFF	; 255
      6e:	d8 e0       	ldi	r29, 0x08	; 8
      70:	de bf       	out	0x3e, r29	; 62
      72:	cd bf       	out	0x3d, r28	; 61

00000074 <__do_copy_data>:
      74:	13 e0       	ldi	r17, 0x03	; 3
      76:	a0 e0       	ldi	r26, 0x00	; 0
      78:	b1 e0       	ldi	r27, 0x01	; 1
      7a:	ec e9       	ldi	r30, 0x9C	; 156
      7c:	f8 e1       	ldi	r31, 0x18	; 24
      7e:	02 c0       	rjmp	.+4      	; 0x84 <__do_copy_data+0x10>
      80:	05 90       	lpm	r0, Z+
      82:	0d 92       	st	X+, r0
      84:	a0 3f       	cpi	r26, 0xF0	; 240
      86:	b1 07       	cpc	r27, r17
      88:	d9 f7       	brne	.-10     	; 0x80 <__do_copy_data+0xc>

0000008a <__do_clear_bss>:
      8a:	24 e0       	ldi	r18, 0x04	; 4
      8c:	a0 ef       	ldi	r26, 0xF0	; 240
      8e:	b3 e0       	ldi	r27, 0x03	; 3
      90:	01 c0       	rjmp	.+2      	; 0x94 <.do_clear_bss_start>

00000092 <.do_clear_bss_loop>:
      92:	1d 92       	st	X+, r1

00000094 <.do_clear_bss_start>:
      94:	ae 3b       	cpi	r26, 0xBE	; 190
      96:	b2 07       	cpc	r27, r18
      98:	e1 f7       	brne	.-8      	; 0x92 <.do_clear_bss_loop>
      9a:	0e 94 70 06 	call	0xce0	; 0xce0 <main>
      9e:	0c 94 4c 0c 	jmp	0x1898	; 0x1898 <_exit>

000000a2 <__bad_interrupt>:
      a2:	0c 94 00 00 	jmp	0	; 0x0 <__vectors>

000000a6 <getMSB>:
	// combine msb and lsb to get 16 bit dig_T3 value 
	dig_T3=(int16_t)(dig_T3_msb<<8)|(int16_t)(dig_T3_lsb);
	
	UART_TxString("dig_T3: ");
	UART_TxNumber(dig_T3);
	UART_TxString("\r\n");
      a6:	85 b1       	in	r24, 0x05	; 5
      a8:	8b 7f       	andi	r24, 0xFB	; 251
      aa:	85 b9       	out	0x05, r24	; 5
      ac:	8a ef       	ldi	r24, 0xFA	; 250
      ae:	8e bd       	out	0x2e, r24	; 46
      b0:	0d b4       	in	r0, 0x2d	; 45
      b2:	07 fe       	sbrs	r0, 7
      b4:	fd cf       	rjmp	.-6      	; 0xb0 <getMSB+0xa>
      b6:	8e b5       	in	r24, 0x2e	; 46
      b8:	1e bc       	out	0x2e, r1	; 46
      ba:	0d b4       	in	r0, 0x2d	; 45
      bc:	07 fe       	sbrs	r0, 7
      be:	fd cf       	rjmp	.-6      	; 0xba <getMSB+0x14>
      c0:	8e b5       	in	r24, 0x2e	; 46
      c2:	90 e0       	ldi	r25, 0x00	; 0
      c4:	a0 e0       	ldi	r26, 0x00	; 0
      c6:	b0 e0       	ldi	r27, 0x00	; 0
      c8:	80 93 5b 04 	sts	0x045B, r24	; 0x80045b <MSB>
      cc:	90 93 5c 04 	sts	0x045C, r25	; 0x80045c <MSB+0x1>
      d0:	a0 93 5d 04 	sts	0x045D, r26	; 0x80045d <MSB+0x2>
      d4:	b0 93 5e 04 	sts	0x045E, r27	; 0x80045e <MSB+0x3>
      d8:	85 b1       	in	r24, 0x05	; 5
      da:	84 60       	ori	r24, 0x04	; 4
      dc:	85 b9       	out	0x05, r24	; 5
      de:	08 95       	ret

000000e0 <getLSB>:
      e0:	85 b1       	in	r24, 0x05	; 5
      e2:	8b 7f       	andi	r24, 0xFB	; 251
      e4:	85 b9       	out	0x05, r24	; 5
      e6:	8b ef       	ldi	r24, 0xFB	; 251
      e8:	8e bd       	out	0x2e, r24	; 46
      ea:	0d b4       	in	r0, 0x2d	; 45
      ec:	07 fe       	sbrs	r0, 7
      ee:	fd cf       	rjmp	.-6      	; 0xea <getLSB+0xa>
      f0:	8e b5       	in	r24, 0x2e	; 46
      f2:	1e bc       	out	0x2e, r1	; 46
      f4:	0d b4       	in	r0, 0x2d	; 45
      f6:	07 fe       	sbrs	r0, 7
      f8:	fd cf       	rjmp	.-6      	; 0xf4 <getLSB+0x14>
      fa:	8e b5       	in	r24, 0x2e	; 46
      fc:	90 e0       	ldi	r25, 0x00	; 0
      fe:	a0 e0       	ldi	r26, 0x00	; 0
     100:	b0 e0       	ldi	r27, 0x00	; 0
     102:	80 93 33 04 	sts	0x0433, r24	; 0x800433 <LSB>
     106:	90 93 34 04 	sts	0x0434, r25	; 0x800434 <LSB+0x1>
     10a:	a0 93 35 04 	sts	0x0435, r26	; 0x800435 <LSB+0x2>
     10e:	b0 93 36 04 	sts	0x0436, r27	; 0x800436 <LSB+0x3>
     112:	85 b1       	in	r24, 0x05	; 5
     114:	84 60       	ori	r24, 0x04	; 4
     116:	85 b9       	out	0x05, r24	; 5
     118:	08 95       	ret

0000011a <getxLSB>:
     11a:	85 b1       	in	r24, 0x05	; 5
     11c:	8b 7f       	andi	r24, 0xFB	; 251
     11e:	85 b9       	out	0x05, r24	; 5
     120:	8c ef       	ldi	r24, 0xFC	; 252
     122:	8e bd       	out	0x2e, r24	; 46
     124:	0d b4       	in	r0, 0x2d	; 45
     126:	07 fe       	sbrs	r0, 7
     128:	fd cf       	rjmp	.-6      	; 0x124 <getxLSB+0xa>
     12a:	8e b5       	in	r24, 0x2e	; 46
     12c:	1e bc       	out	0x2e, r1	; 46
     12e:	0d b4       	in	r0, 0x2d	; 45
     130:	07 fe       	sbrs	r0, 7
     132:	fd cf       	rjmp	.-6      	; 0x12e <getxLSB+0x14>
     134:	8e b5       	in	r24, 0x2e	; 46
     136:	90 e0       	ldi	r25, 0x00	; 0
     138:	a0 e0       	ldi	r26, 0x00	; 0
     13a:	b0 e0       	ldi	r27, 0x00	; 0
     13c:	80 93 11 04 	sts	0x0411, r24	; 0x800411 <xLSB>
     140:	90 93 12 04 	sts	0x0412, r25	; 0x800412 <xLSB+0x1>
     144:	a0 93 13 04 	sts	0x0413, r26	; 0x800413 <xLSB+0x2>
     148:	b0 93 14 04 	sts	0x0414, r27	; 0x800414 <xLSB+0x3>
     14c:	85 b1       	in	r24, 0x05	; 5
     14e:	84 60       	ori	r24, 0x04	; 4
     150:	85 b9       	out	0x05, r24	; 5
     152:	08 95       	ret

00000154 <getRawTemp>:
     154:	0e 94 53 00 	call	0xa6	; 0xa6 <getMSB>
     158:	0e 94 70 00 	call	0xe0	; 0xe0 <getLSB>
     15c:	0e 94 8d 00 	call	0x11a	; 0x11a <getxLSB>
     160:	80 91 5b 04 	lds	r24, 0x045B	; 0x80045b <MSB>
     164:	90 91 5c 04 	lds	r25, 0x045C	; 0x80045c <MSB+0x1>
     168:	a0 91 5d 04 	lds	r26, 0x045D	; 0x80045d <MSB+0x2>
     16c:	b0 91 5e 04 	lds	r27, 0x045E	; 0x80045e <MSB+0x3>
     170:	ac 01       	movw	r20, r24
     172:	bd 01       	movw	r22, r26
     174:	03 2e       	mov	r0, r19
     176:	3c e0       	ldi	r19, 0x0C	; 12
     178:	44 0f       	add	r20, r20
     17a:	55 1f       	adc	r21, r21
     17c:	66 1f       	adc	r22, r22
     17e:	77 1f       	adc	r23, r23
     180:	3a 95       	dec	r19
     182:	d1 f7       	brne	.-12     	; 0x178 <getRawTemp+0x24>
     184:	30 2d       	mov	r19, r0
     186:	80 91 33 04 	lds	r24, 0x0433	; 0x800433 <LSB>
     18a:	90 91 34 04 	lds	r25, 0x0434	; 0x800434 <LSB+0x1>
     18e:	a0 91 35 04 	lds	r26, 0x0435	; 0x800435 <LSB+0x2>
     192:	b0 91 36 04 	lds	r27, 0x0436	; 0x800436 <LSB+0x3>
     196:	88 0f       	add	r24, r24
     198:	99 1f       	adc	r25, r25
     19a:	aa 1f       	adc	r26, r26
     19c:	bb 1f       	adc	r27, r27
     19e:	88 0f       	add	r24, r24
     1a0:	99 1f       	adc	r25, r25
     1a2:	aa 1f       	adc	r26, r26
     1a4:	bb 1f       	adc	r27, r27
     1a6:	88 0f       	add	r24, r24
     1a8:	99 1f       	adc	r25, r25
     1aa:	aa 1f       	adc	r26, r26
     1ac:	bb 1f       	adc	r27, r27
     1ae:	88 0f       	add	r24, r24
     1b0:	99 1f       	adc	r25, r25
     1b2:	aa 1f       	adc	r26, r26
     1b4:	bb 1f       	adc	r27, r27
     1b6:	84 2b       	or	r24, r20
     1b8:	95 2b       	or	r25, r21
     1ba:	a6 2b       	or	r26, r22
     1bc:	b7 2b       	or	r27, r23
     1be:	40 91 11 04 	lds	r20, 0x0411	; 0x800411 <xLSB>
     1c2:	50 91 12 04 	lds	r21, 0x0412	; 0x800412 <xLSB+0x1>
     1c6:	60 91 13 04 	lds	r22, 0x0413	; 0x800413 <xLSB+0x2>
     1ca:	70 91 14 04 	lds	r23, 0x0414	; 0x800414 <xLSB+0x3>
     1ce:	68 94       	set
     1d0:	13 f8       	bld	r1, 3
     1d2:	76 95       	lsr	r23
     1d4:	67 95       	ror	r22
     1d6:	57 95       	ror	r21
     1d8:	47 95       	ror	r20
     1da:	16 94       	lsr	r1
     1dc:	d1 f7       	brne	.-12     	; 0x1d2 <getRawTemp+0x7e>
     1de:	84 2b       	or	r24, r20
     1e0:	95 2b       	or	r25, r21
     1e2:	a6 2b       	or	r26, r22
     1e4:	b7 2b       	or	r27, r23
     1e6:	80 93 f4 03 	sts	0x03F4, r24	; 0x8003f4 <rawTemp>
     1ea:	90 93 f5 03 	sts	0x03F5, r25	; 0x8003f5 <rawTemp+0x1>
     1ee:	a0 93 f6 03 	sts	0x03F6, r26	; 0x8003f6 <rawTemp+0x2>
     1f2:	b0 93 f7 03 	sts	0x03F7, r27	; 0x8003f7 <rawTemp+0x3>
     1f6:	08 95       	ret

000001f8 <ctrl_meas>:

void ctrl_meas(void)
{
	uint16_t ctrl_meas;
	// ctrl_meas register is 0xF4, we need to write 0x27 to this register 
	PORTB&=~(1<<CS);
     1f8:	85 b1       	in	r24, 0x05	; 5
     1fa:	8b 7f       	andi	r24, 0xFB	; 251
     1fc:	85 b9       	out	0x05, r24	; 5
	// configure reg for writing, ie we need to AND with 7F
	
	SPDR=0xF4 & 0x7F; // ctrl_meas writing mode
     1fe:	84 e7       	ldi	r24, 0x74	; 116
     200:	8e bd       	out	0x2e, r24	; 46
	while(!(SPSR&(1<<SPIF)));
     202:	0d b4       	in	r0, 0x2d	; 45
     204:	07 fe       	sbrs	r0, 7
     206:	fd cf       	rjmp	.-6      	; 0x202 <ctrl_meas+0xa>
	(void)SPDR;
     208:	8e b5       	in	r24, 0x2e	; 46
	
	SPDR=0x27;
     20a:	87 e2       	ldi	r24, 0x27	; 39
     20c:	8e bd       	out	0x2e, r24	; 46
	while(!(SPSR&(1<<SPIF)));
     20e:	0d b4       	in	r0, 0x2d	; 45
     210:	07 fe       	sbrs	r0, 7
     212:	fd cf       	rjmp	.-6      	; 0x20e <ctrl_meas+0x16>
	(void)SPDR;
     214:	8e b5       	in	r24, 0x2e	; 46
	PORTB|=(1<<CS);
     216:	85 b1       	in	r24, 0x05	; 5
     218:	84 60       	ori	r24, 0x04	; 4
     21a:	85 b9       	out	0x05, r24	; 5
	
	// check ctrl_meas
	PORTB&=~(1<<CS);
     21c:	85 b1       	in	r24, 0x05	; 5
     21e:	8b 7f       	andi	r24, 0xFB	; 251
     220:	85 b9       	out	0x05, r24	; 5
	SPDR=0xF4|0x80; // ctrl_meas reading mode 
     222:	84 ef       	ldi	r24, 0xF4	; 244
     224:	8e bd       	out	0x2e, r24	; 46
	while(!(SPSR&(1<<SPIF)));
     226:	0d b4       	in	r0, 0x2d	; 45
     228:	07 fe       	sbrs	r0, 7
     22a:	fd cf       	rjmp	.-6      	; 0x226 <ctrl_meas+0x2e>
	(void)SPDR;
     22c:	8e b5       	in	r24, 0x2e	; 46
	
	SPDR=0x00;
     22e:	1e bc       	out	0x2e, r1	; 46
	while(!(SPSR&(1<<SPIF)));
     230:	0d b4       	in	r0, 0x2d	; 45
     232:	07 fe       	sbrs	r0, 7
     234:	fd cf       	rjmp	.-6      	; 0x230 <ctrl_meas+0x38>
	ctrl_meas=SPDR;
     236:	8e b5       	in	r24, 0x2e	; 46
	PORTB|=(1<<CS);
     238:	85 b1       	in	r24, 0x05	; 5
     23a:	84 60       	ori	r24, 0x04	; 4
     23c:	85 b9       	out	0x05, r24	; 5
     23e:	08 95       	ret

00000240 <realTemp>:
	
	
}

void realTemp(void)
{
     240:	4f 92       	push	r4
     242:	5f 92       	push	r5
     244:	6f 92       	push	r6
     246:	7f 92       	push	r7
     248:	8f 92       	push	r8
     24a:	9f 92       	push	r9
     24c:	af 92       	push	r10
     24e:	bf 92       	push	r11
     250:	cf 92       	push	r12
     252:	df 92       	push	r13
     254:	ef 92       	push	r14
     256:	ff 92       	push	r15
	// t_fine = var1+var2
	// var1= ( (rawTemp_float/16384.0) - (dig_T1/1024.0) )* dig_T2
	// var2 =  ((rawTemp_float/131072.0) - (dig_T2/8192.0))* dig_T3
	
	
	 rawTemp_float = (float) rawTemp;
     258:	60 91 f4 03 	lds	r22, 0x03F4	; 0x8003f4 <rawTemp>
     25c:	70 91 f5 03 	lds	r23, 0x03F5	; 0x8003f5 <rawTemp+0x1>
     260:	80 91 f6 03 	lds	r24, 0x03F6	; 0x8003f6 <rawTemp+0x2>
     264:	90 91 f7 03 	lds	r25, 0x03F7	; 0x8003f7 <rawTemp+0x3>
     268:	0e 94 05 0b 	call	0x160a	; 0x160a <__floatunsisf>
     26c:	6b 01       	movw	r12, r22
     26e:	7c 01       	movw	r14, r24
     270:	60 93 06 04 	sts	0x0406, r22	; 0x800406 <rawTemp_float>
     274:	70 93 07 04 	sts	0x0407, r23	; 0x800407 <rawTemp_float+0x1>
     278:	80 93 08 04 	sts	0x0408, r24	; 0x800408 <rawTemp_float+0x2>
     27c:	90 93 09 04 	sts	0x0409, r25	; 0x800409 <rawTemp_float+0x3>
	 var1=(((rawTemp_float/16384.0f)-((float)dig_T1/1024.0f))*(float)dig_T2);
     280:	20 e0       	ldi	r18, 0x00	; 0
     282:	30 e0       	ldi	r19, 0x00	; 0
     284:	40 e8       	ldi	r20, 0x80	; 128
     286:	58 e3       	ldi	r21, 0x38	; 56
     288:	0e 94 b7 0b 	call	0x176e	; 0x176e <__mulsf3>
     28c:	4b 01       	movw	r8, r22
     28e:	5c 01       	movw	r10, r24
     290:	60 91 fe 03 	lds	r22, 0x03FE	; 0x8003fe <dig_T1>
     294:	70 91 ff 03 	lds	r23, 0x03FF	; 0x8003ff <dig_T1+0x1>
     298:	80 e0       	ldi	r24, 0x00	; 0
     29a:	90 e0       	ldi	r25, 0x00	; 0
     29c:	0e 94 05 0b 	call	0x160a	; 0x160a <__floatunsisf>
     2a0:	20 e0       	ldi	r18, 0x00	; 0
     2a2:	30 e0       	ldi	r19, 0x00	; 0
     2a4:	40 e8       	ldi	r20, 0x80	; 128
     2a6:	5a e3       	ldi	r21, 0x3A	; 58
     2a8:	0e 94 b7 0b 	call	0x176e	; 0x176e <__mulsf3>
     2ac:	9b 01       	movw	r18, r22
     2ae:	ac 01       	movw	r20, r24
     2b0:	c5 01       	movw	r24, r10
     2b2:	b4 01       	movw	r22, r8
     2b4:	0e 94 eb 09 	call	0x13d6	; 0x13d6 <__subsf3>
     2b8:	4b 01       	movw	r8, r22
     2ba:	5c 01       	movw	r10, r24
     2bc:	60 91 0c 04 	lds	r22, 0x040C	; 0x80040c <dig_T2>
     2c0:	70 91 0d 04 	lds	r23, 0x040D	; 0x80040d <dig_T2+0x1>
     2c4:	07 2e       	mov	r0, r23
     2c6:	00 0c       	add	r0, r0
     2c8:	88 0b       	sbc	r24, r24
     2ca:	99 0b       	sbc	r25, r25
     2cc:	0e 94 07 0b 	call	0x160e	; 0x160e <__floatsisf>
     2d0:	2b 01       	movw	r4, r22
     2d2:	3c 01       	movw	r6, r24
     2d4:	9b 01       	movw	r18, r22
     2d6:	ac 01       	movw	r20, r24
     2d8:	c5 01       	movw	r24, r10
     2da:	b4 01       	movw	r22, r8
     2dc:	0e 94 b7 0b 	call	0x176e	; 0x176e <__mulsf3>
     2e0:	4b 01       	movw	r8, r22
     2e2:	5c 01       	movw	r10, r24
     2e4:	60 93 19 04 	sts	0x0419, r22	; 0x800419 <var1>
     2e8:	70 93 1a 04 	sts	0x041A, r23	; 0x80041a <var1+0x1>
     2ec:	80 93 1b 04 	sts	0x041B, r24	; 0x80041b <var1+0x2>
     2f0:	90 93 1c 04 	sts	0x041C, r25	; 0x80041c <var1+0x3>
	 var2 =  ((rawTemp_float/131072.0f) - (dig_T2/8192.0f))* dig_T3;
     2f4:	20 e0       	ldi	r18, 0x00	; 0
     2f6:	30 e0       	ldi	r19, 0x00	; 0
     2f8:	40 e0       	ldi	r20, 0x00	; 0
     2fa:	57 e3       	ldi	r21, 0x37	; 55
     2fc:	c7 01       	movw	r24, r14
     2fe:	b6 01       	movw	r22, r12
     300:	0e 94 b7 0b 	call	0x176e	; 0x176e <__mulsf3>
     304:	6b 01       	movw	r12, r22
     306:	7c 01       	movw	r14, r24
     308:	20 e0       	ldi	r18, 0x00	; 0
     30a:	30 e0       	ldi	r19, 0x00	; 0
     30c:	40 e0       	ldi	r20, 0x00	; 0
     30e:	59 e3       	ldi	r21, 0x39	; 57
     310:	c3 01       	movw	r24, r6
     312:	b2 01       	movw	r22, r4
     314:	0e 94 b7 0b 	call	0x176e	; 0x176e <__mulsf3>
     318:	9b 01       	movw	r18, r22
     31a:	ac 01       	movw	r20, r24
     31c:	c7 01       	movw	r24, r14
     31e:	b6 01       	movw	r22, r12
     320:	0e 94 eb 09 	call	0x13d6	; 0x13d6 <__subsf3>
     324:	6b 01       	movw	r12, r22
     326:	7c 01       	movw	r14, r24
     328:	60 91 a8 04 	lds	r22, 0x04A8	; 0x8004a8 <dig_T3>
     32c:	70 91 a9 04 	lds	r23, 0x04A9	; 0x8004a9 <dig_T3+0x1>
     330:	07 2e       	mov	r0, r23
     332:	00 0c       	add	r0, r0
     334:	88 0b       	sbc	r24, r24
     336:	99 0b       	sbc	r25, r25
     338:	0e 94 07 0b 	call	0x160e	; 0x160e <__floatsisf>
     33c:	a7 01       	movw	r20, r14
     33e:	96 01       	movw	r18, r12
     340:	0e 94 b7 0b 	call	0x176e	; 0x176e <__mulsf3>
     344:	9b 01       	movw	r18, r22
     346:	ac 01       	movw	r20, r24
     348:	60 93 69 04 	sts	0x0469, r22	; 0x800469 <var2>
     34c:	70 93 6a 04 	sts	0x046A, r23	; 0x80046a <var2+0x1>
     350:	80 93 6b 04 	sts	0x046B, r24	; 0x80046b <var2+0x2>
     354:	90 93 6c 04 	sts	0x046C, r25	; 0x80046c <var2+0x3>
	 /*var2 = (((rawTemp_float/131072.0f) - ((float)dig_T1/8192.0f)) *
	 ((rawTemp_float/131072.0f) - ((float)dig_T1/8192.0f))) *
	 (float)dig_T3;*/
;

	 t_fine = var1+var2;
     358:	c5 01       	movw	r24, r10
     35a:	b4 01       	movw	r22, r8
     35c:	0e 94 ec 09 	call	0x13d8	; 0x13d8 <__addsf3>
     360:	60 93 b0 04 	sts	0x04B0, r22	; 0x8004b0 <t_fine>
     364:	70 93 b1 04 	sts	0x04B1, r23	; 0x8004b1 <t_fine+0x1>
     368:	80 93 b2 04 	sts	0x04B2, r24	; 0x8004b2 <t_fine+0x2>
     36c:	90 93 b3 04 	sts	0x04B3, r25	; 0x8004b3 <t_fine+0x3>
	 T = t_fine/5120.0f;
     370:	20 e0       	ldi	r18, 0x00	; 0
     372:	30 e0       	ldi	r19, 0x00	; 0
     374:	40 ea       	ldi	r20, 0xA0	; 160
     376:	55 e4       	ldi	r21, 0x45	; 69
     378:	0e 94 5d 0a 	call	0x14ba	; 0x14ba <__divsf3>
     37c:	60 93 27 04 	sts	0x0427, r22	; 0x800427 <T>
     380:	70 93 28 04 	sts	0x0428, r23	; 0x800428 <T+0x1>
     384:	80 93 29 04 	sts	0x0429, r24	; 0x800429 <T+0x2>
     388:	90 93 2a 04 	sts	0x042A, r25	; 0x80042a <T+0x3>
	 UART_TxString("\nReal time room temperature: ");
     38c:	8b e6       	ldi	r24, 0x6B	; 107
     38e:	91 e0       	ldi	r25, 0x01	; 1
     390:	0e 94 f2 08 	call	0x11e4	; 0x11e4 <UART_TxString>
	 UART_TxFloat(T, 2);
     394:	60 91 27 04 	lds	r22, 0x0427	; 0x800427 <T>
     398:	70 91 28 04 	lds	r23, 0x0428	; 0x800428 <T+0x1>
     39c:	80 91 29 04 	lds	r24, 0x0429	; 0x800429 <T+0x2>
     3a0:	90 91 2a 04 	lds	r25, 0x042A	; 0x80042a <T+0x3>
     3a4:	42 e0       	ldi	r20, 0x02	; 2
     3a6:	0e 94 1a 09 	call	0x1234	; 0x1234 <UART_TxFloat>
	 UART_TxString(" C\n");
     3aa:	89 e8       	ldi	r24, 0x89	; 137
     3ac:	91 e0       	ldi	r25, 0x01	; 1
     3ae:	0e 94 f2 08 	call	0x11e4	; 0x11e4 <UART_TxString>
	
	 
	 OLED_SetCursor(5,31);
     3b2:	6f e1       	ldi	r22, 0x1F	; 31
     3b4:	85 e0       	ldi	r24, 0x05	; 5
     3b6:	0e 94 9f 06 	call	0xd3e	; 0xd3e <OLED_SetCursor>

	 OLED_PrintFloat_2Decimal(T);
     3ba:	60 91 27 04 	lds	r22, 0x0427	; 0x800427 <T>
     3be:	70 91 28 04 	lds	r23, 0x0428	; 0x800428 <T+0x1>
     3c2:	80 91 29 04 	lds	r24, 0x0429	; 0x800429 <T+0x2>
     3c6:	90 91 2a 04 	lds	r25, 0x042A	; 0x80042a <T+0x3>
     3ca:	0e 94 da 07 	call	0xfb4	; 0xfb4 <OLED_PrintFloat_2Decimal>

	 OLED_String(" C"); // for C	 
     3ce:	8d e8       	ldi	r24, 0x8D	; 141
     3d0:	91 e0       	ldi	r25, 0x01	; 1
     3d2:	0e 94 4d 07 	call	0xe9a	; 0xe9a <OLED_String>
}
     3d6:	ff 90       	pop	r15
     3d8:	ef 90       	pop	r14
     3da:	df 90       	pop	r13
     3dc:	cf 90       	pop	r12
     3de:	bf 90       	pop	r11
     3e0:	af 90       	pop	r10
     3e2:	9f 90       	pop	r9
     3e4:	8f 90       	pop	r8
     3e6:	7f 90       	pop	r7
     3e8:	6f 90       	pop	r6
     3ea:	5f 90       	pop	r5
     3ec:	4f 90       	pop	r4
     3ee:	08 95       	ret

000003f0 <getRawPressure>:


void getRawPressure(void)
{
	ctrl_meas();
     3f0:	0e 94 fc 00 	call	0x1f8	; 0x1f8 <ctrl_meas>
	PORTB&=~(1<<CS); // start communication, here using burst mode (continous SPI transactions)
     3f4:	85 b1       	in	r24, 0x05	; 5
     3f6:	8b 7f       	andi	r24, 0xFB	; 251
     3f8:	85 b9       	out	0x05, r24	; 5
	//reading pressure msb
	// Pressure raw registers: 0xF7 (MSB), 0xF8 (LSB), 0xF9 (XLSB)
	SPDR=0xF7|0x80; // msb configured for reading 
     3fa:	87 ef       	ldi	r24, 0xF7	; 247
     3fc:	8e bd       	out	0x2e, r24	; 46
	while(!(SPSR&(1<<SPIF)));
     3fe:	0d b4       	in	r0, 0x2d	; 45
     400:	07 fe       	sbrs	r0, 7
     402:	fd cf       	rjmp	.-6      	; 0x3fe <getRawPressure+0xe>
	(void)SPDR; // dummy 1
     404:	8e b5       	in	r24, 0x2e	; 46
	

	
	SPDR=0x00;
     406:	1e bc       	out	0x2e, r1	; 46
	while(!(SPSR&(1<<SPIF)));
     408:	0d b4       	in	r0, 0x2d	; 45
     40a:	07 fe       	sbrs	r0, 7
     40c:	fd cf       	rjmp	.-6      	; 0x408 <__EEPROM_REGION_LENGTH__+0x8>
	msb_p=SPDR;
     40e:	8e b5       	in	r24, 0x2e	; 46
     410:	90 e0       	ldi	r25, 0x00	; 0
     412:	a0 e0       	ldi	r26, 0x00	; 0
     414:	b0 e0       	ldi	r27, 0x00	; 0
     416:	80 93 15 04 	sts	0x0415, r24	; 0x800415 <msb_p>
     41a:	90 93 16 04 	sts	0x0416, r25	; 0x800416 <msb_p+0x1>
     41e:	a0 93 17 04 	sts	0x0417, r26	; 0x800417 <msb_p+0x2>
     422:	b0 93 18 04 	sts	0x0418, r27	; 0x800418 <msb_p+0x3>
	
	SPDR=0x00;
     426:	1e bc       	out	0x2e, r1	; 46
	while(!(SPSR&(1<<SPIF)));
     428:	0d b4       	in	r0, 0x2d	; 45
     42a:	07 fe       	sbrs	r0, 7
     42c:	fd cf       	rjmp	.-6      	; 0x428 <__EEPROM_REGION_LENGTH__+0x28>
	lsb_p=SPDR;
     42e:	8e b5       	in	r24, 0x2e	; 46
     430:	90 e0       	ldi	r25, 0x00	; 0
     432:	a0 e0       	ldi	r26, 0x00	; 0
     434:	b0 e0       	ldi	r27, 0x00	; 0
     436:	80 93 23 04 	sts	0x0423, r24	; 0x800423 <lsb_p>
     43a:	90 93 24 04 	sts	0x0424, r25	; 0x800424 <lsb_p+0x1>
     43e:	a0 93 25 04 	sts	0x0425, r26	; 0x800425 <lsb_p+0x2>
     442:	b0 93 26 04 	sts	0x0426, r27	; 0x800426 <lsb_p+0x3>
	
	SPDR=0x00;
     446:	1e bc       	out	0x2e, r1	; 46
	while(!(SPSR&(1<<SPIF)));
     448:	0d b4       	in	r0, 0x2d	; 45
     44a:	07 fe       	sbrs	r0, 7
     44c:	fd cf       	rjmp	.-6      	; 0x448 <__EEPROM_REGION_LENGTH__+0x48>
	xlsb_p=SPDR;
     44e:	8e b5       	in	r24, 0x2e	; 46
     450:	90 e0       	ldi	r25, 0x00	; 0
     452:	a0 e0       	ldi	r26, 0x00	; 0
     454:	b0 e0       	ldi	r27, 0x00	; 0
     456:	80 93 1d 04 	sts	0x041D, r24	; 0x80041d <xlsb_p>
     45a:	90 93 1e 04 	sts	0x041E, r25	; 0x80041e <xlsb_p+0x1>
     45e:	a0 93 1f 04 	sts	0x041F, r26	; 0x80041f <xlsb_p+0x2>
     462:	b0 93 20 04 	sts	0x0420, r27	; 0x800420 <xlsb_p+0x3>
	
	PORTB|=(1<<CS); // stop communication
     466:	85 b1       	in	r24, 0x05	; 5
     468:	84 60       	ori	r24, 0x04	; 4
     46a:	85 b9       	out	0x05, r24	; 5
	
	rawPressure=((uint32_t)(msb_p<<12))|((uint32_t)(lsb_p<<4))|((uint32_t)(xlsb_p>>4));
     46c:	80 91 15 04 	lds	r24, 0x0415	; 0x800415 <msb_p>
     470:	90 91 16 04 	lds	r25, 0x0416	; 0x800416 <msb_p+0x1>
     474:	a0 91 17 04 	lds	r26, 0x0417	; 0x800417 <msb_p+0x2>
     478:	b0 91 18 04 	lds	r27, 0x0418	; 0x800418 <msb_p+0x3>
     47c:	ac 01       	movw	r20, r24
     47e:	bd 01       	movw	r22, r26
     480:	03 2e       	mov	r0, r19
     482:	3c e0       	ldi	r19, 0x0C	; 12
     484:	44 0f       	add	r20, r20
     486:	55 1f       	adc	r21, r21
     488:	66 1f       	adc	r22, r22
     48a:	77 1f       	adc	r23, r23
     48c:	3a 95       	dec	r19
     48e:	d1 f7       	brne	.-12     	; 0x484 <__EEPROM_REGION_LENGTH__+0x84>
     490:	30 2d       	mov	r19, r0
     492:	80 91 23 04 	lds	r24, 0x0423	; 0x800423 <lsb_p>
     496:	90 91 24 04 	lds	r25, 0x0424	; 0x800424 <lsb_p+0x1>
     49a:	a0 91 25 04 	lds	r26, 0x0425	; 0x800425 <lsb_p+0x2>
     49e:	b0 91 26 04 	lds	r27, 0x0426	; 0x800426 <lsb_p+0x3>
     4a2:	88 0f       	add	r24, r24
     4a4:	99 1f       	adc	r25, r25
     4a6:	aa 1f       	adc	r26, r26
     4a8:	bb 1f       	adc	r27, r27
     4aa:	88 0f       	add	r24, r24
     4ac:	99 1f       	adc	r25, r25
     4ae:	aa 1f       	adc	r26, r26
     4b0:	bb 1f       	adc	r27, r27
     4b2:	88 0f       	add	r24, r24
     4b4:	99 1f       	adc	r25, r25
     4b6:	aa 1f       	adc	r26, r26
     4b8:	bb 1f       	adc	r27, r27
     4ba:	88 0f       	add	r24, r24
     4bc:	99 1f       	adc	r25, r25
     4be:	aa 1f       	adc	r26, r26
     4c0:	bb 1f       	adc	r27, r27
     4c2:	84 2b       	or	r24, r20
     4c4:	95 2b       	or	r25, r21
     4c6:	a6 2b       	or	r26, r22
     4c8:	b7 2b       	or	r27, r23
     4ca:	40 91 1d 04 	lds	r20, 0x041D	; 0x80041d <xlsb_p>
     4ce:	50 91 1e 04 	lds	r21, 0x041E	; 0x80041e <xlsb_p+0x1>
     4d2:	60 91 1f 04 	lds	r22, 0x041F	; 0x80041f <xlsb_p+0x2>
     4d6:	70 91 20 04 	lds	r23, 0x0420	; 0x800420 <xlsb_p+0x3>
     4da:	68 94       	set
     4dc:	13 f8       	bld	r1, 3
     4de:	76 95       	lsr	r23
     4e0:	67 95       	ror	r22
     4e2:	57 95       	ror	r21
     4e4:	47 95       	ror	r20
     4e6:	16 94       	lsr	r1
     4e8:	d1 f7       	brne	.-12     	; 0x4de <__EEPROM_REGION_LENGTH__+0xde>
     4ea:	84 2b       	or	r24, r20
     4ec:	95 2b       	or	r25, r21
     4ee:	a6 2b       	or	r26, r22
     4f0:	b7 2b       	or	r27, r23
     4f2:	80 93 f0 03 	sts	0x03F0, r24	; 0x8003f0 <__data_end>
     4f6:	90 93 f1 03 	sts	0x03F1, r25	; 0x8003f1 <__data_end+0x1>
     4fa:	a0 93 f2 03 	sts	0x03F2, r26	; 0x8003f2 <__data_end+0x2>
     4fe:	b0 93 f3 03 	sts	0x03F3, r27	; 0x8003f3 <__data_end+0x3>
     502:	08 95       	ret

00000504 <readCalib>:
	
	*/
	
	
	
	PORTB&=~(1<<CS); //start communication
     504:	85 b1       	in	r24, 0x05	; 5
     506:	8b 7f       	andi	r24, 0xFB	; 251
     508:	85 b9       	out	0x05, r24	; 5
	SPDR=0x88|0x80; // to read first calib value, ie; dig_T1
     50a:	88 e8       	ldi	r24, 0x88	; 136
     50c:	8e bd       	out	0x2e, r24	; 46
	while(!(SPSR&(1<<SPIF)));
     50e:	0d b4       	in	r0, 0x2d	; 45
     510:	07 fe       	sbrs	r0, 7
     512:	fd cf       	rjmp	.-6      	; 0x50e <readCalib+0xa>
	(void)SPDR; // getting garbage
     514:	8e b5       	in	r24, 0x2e	; 46
	
	// temperature calibtation constants 
	
	SPDR=0x00;
     516:	1e bc       	out	0x2e, r1	; 46
	while(!(SPSR&(1<<SPIF)));
     518:	0d b4       	in	r0, 0x2d	; 45
     51a:	07 fe       	sbrs	r0, 7
     51c:	fd cf       	rjmp	.-6      	; 0x518 <readCalib+0x14>
	dig_T1_lsb=SPDR;
     51e:	8e b5       	in	r24, 0x2e	; 46
     520:	90 e0       	ldi	r25, 0x00	; 0
     522:	90 93 fb 03 	sts	0x03FB, r25	; 0x8003fb <dig_T1_lsb+0x1>
     526:	80 93 fa 03 	sts	0x03FA, r24	; 0x8003fa <dig_T1_lsb>
	
	SPDR=0x00;
     52a:	1e bc       	out	0x2e, r1	; 46
	while(!(SPSR&(1<<SPIF)));
     52c:	0d b4       	in	r0, 0x2d	; 45
     52e:	07 fe       	sbrs	r0, 7
     530:	fd cf       	rjmp	.-6      	; 0x52c <readCalib+0x28>
	dig_T1_msb=SPDR;
     532:	8e b5       	in	r24, 0x2e	; 46
     534:	90 e0       	ldi	r25, 0x00	; 0
     536:	90 93 78 04 	sts	0x0478, r25	; 0x800478 <dig_T1_msb+0x1>
     53a:	80 93 77 04 	sts	0x0477, r24	; 0x800477 <dig_T1_msb>
	
	SPDR=0x00;
     53e:	1e bc       	out	0x2e, r1	; 46
	while(!(SPSR&(1<<SPIF)));
     540:	0d b4       	in	r0, 0x2d	; 45
     542:	07 fe       	sbrs	r0, 7
     544:	fd cf       	rjmp	.-6      	; 0x540 <readCalib+0x3c>
	dig_T2_lsb=SPDR;
     546:	8e b5       	in	r24, 0x2e	; 46
     548:	90 e0       	ldi	r25, 0x00	; 0
     54a:	90 93 64 04 	sts	0x0464, r25	; 0x800464 <dig_T2_lsb+0x1>
     54e:	80 93 63 04 	sts	0x0463, r24	; 0x800463 <dig_T2_lsb>
	
	SPDR=0x00;
     552:	1e bc       	out	0x2e, r1	; 46
	while(!(SPSR&(1<<SPIF)));
     554:	0d b4       	in	r0, 0x2d	; 45
     556:	07 fe       	sbrs	r0, 7
     558:	fd cf       	rjmp	.-6      	; 0x554 <readCalib+0x50>
	dig_T2_msb=SPDR;
     55a:	8e b5       	in	r24, 0x2e	; 46
     55c:	90 e0       	ldi	r25, 0x00	; 0
     55e:	90 93 7e 04 	sts	0x047E, r25	; 0x80047e <dig_T2_msb+0x1>
     562:	80 93 7d 04 	sts	0x047D, r24	; 0x80047d <dig_T2_msb>
	
	SPDR=0x00;
     566:	1e bc       	out	0x2e, r1	; 46
	while(!(SPSR&(1<<SPIF)));
     568:	0d b4       	in	r0, 0x2d	; 45
     56a:	07 fe       	sbrs	r0, 7
     56c:	fd cf       	rjmp	.-6      	; 0x568 <readCalib+0x64>
	dig_T3_lsb=SPDR;
     56e:	8e b5       	in	r24, 0x2e	; 46
     570:	90 e0       	ldi	r25, 0x00	; 0
     572:	90 93 0f 04 	sts	0x040F, r25	; 0x80040f <dig_T3_lsb+0x1>
     576:	80 93 0e 04 	sts	0x040E, r24	; 0x80040e <dig_T3_lsb>
	
	SPDR=0x00;
     57a:	1e bc       	out	0x2e, r1	; 46
	while(!(SPSR&(1<<SPIF)));
     57c:	0d b4       	in	r0, 0x2d	; 45
     57e:	07 fe       	sbrs	r0, 7
     580:	fd cf       	rjmp	.-6      	; 0x57c <readCalib+0x78>
	dig_T3_msb=SPDR;
     582:	8e b5       	in	r24, 0x2e	; 46
     584:	90 e0       	ldi	r25, 0x00	; 0
     586:	90 93 ad 04 	sts	0x04AD, r25	; 0x8004ad <dig_T3_msb+0x1>
     58a:	80 93 ac 04 	sts	0x04AC, r24	; 0x8004ac <dig_T3_msb>
	
	// Reading pressure calibration constants
	SPDR=0x00;
     58e:	1e bc       	out	0x2e, r1	; 46
	while(!(SPSR&(1<<SPIF)));
     590:	0d b4       	in	r0, 0x2d	; 45
     592:	07 fe       	sbrs	r0, 7
     594:	fd cf       	rjmp	.-6      	; 0x590 <readCalib+0x8c>
	dig_P1_lsb=SPDR;
     596:	8e b5       	in	r24, 0x2e	; 46
     598:	90 e0       	ldi	r25, 0x00	; 0
     59a:	90 93 a5 04 	sts	0x04A5, r25	; 0x8004a5 <dig_P1_lsb+0x1>
     59e:	80 93 a4 04 	sts	0x04A4, r24	; 0x8004a4 <dig_P1_lsb>
	
	SPDR=0x00;
     5a2:	1e bc       	out	0x2e, r1	; 46
	while(!(SPSR&(1<<SPIF)));
     5a4:	0d b4       	in	r0, 0x2d	; 45
     5a6:	07 fe       	sbrs	r0, 7
     5a8:	fd cf       	rjmp	.-6      	; 0x5a4 <readCalib+0xa0>
	dig_P1_msb=SPDR;
     5aa:	8e b5       	in	r24, 0x2e	; 46
     5ac:	90 e0       	ldi	r25, 0x00	; 0
     5ae:	90 93 80 04 	sts	0x0480, r25	; 0x800480 <dig_P1_msb+0x1>
     5b2:	80 93 7f 04 	sts	0x047F, r24	; 0x80047f <dig_P1_msb>
	
	SPDR=0x00;
     5b6:	1e bc       	out	0x2e, r1	; 46
	while(!(SPSR&(1<<SPIF)));
     5b8:	0d b4       	in	r0, 0x2d	; 45
     5ba:	07 fe       	sbrs	r0, 7
     5bc:	fd cf       	rjmp	.-6      	; 0x5b8 <readCalib+0xb4>
	dig_P2_lsb=SPDR;
     5be:	8e b5       	in	r24, 0x2e	; 46
     5c0:	90 e0       	ldi	r25, 0x00	; 0
     5c2:	90 93 6f 04 	sts	0x046F, r25	; 0x80046f <dig_P2_lsb+0x1>
     5c6:	80 93 6e 04 	sts	0x046E, r24	; 0x80046e <dig_P2_lsb>
	
	SPDR=0x00;
     5ca:	1e bc       	out	0x2e, r1	; 46
	while(!(SPSR&(1<<SPIF)));
     5cc:	0d b4       	in	r0, 0x2d	; 45
     5ce:	07 fe       	sbrs	r0, 7
     5d0:	fd cf       	rjmp	.-6      	; 0x5cc <readCalib+0xc8>
	dig_P2_msb=SPDR;
     5d2:	8e b5       	in	r24, 0x2e	; 46
     5d4:	90 e0       	ldi	r25, 0x00	; 0
     5d6:	90 93 66 04 	sts	0x0466, r25	; 0x800466 <dig_P2_msb+0x1>
     5da:	80 93 65 04 	sts	0x0465, r24	; 0x800465 <dig_P2_msb>
	
	SPDR=0x00;
     5de:	1e bc       	out	0x2e, r1	; 46
	while(!(SPSR&(1<<SPIF)));
     5e0:	0d b4       	in	r0, 0x2d	; 45
     5e2:	07 fe       	sbrs	r0, 7
     5e4:	fd cf       	rjmp	.-6      	; 0x5e0 <readCalib+0xdc>
	dig_P3_lsb=SPDR;
     5e6:	8e b5       	in	r24, 0x2e	; 46
     5e8:	90 e0       	ldi	r25, 0x00	; 0
     5ea:	90 93 04 04 	sts	0x0404, r25	; 0x800404 <dig_P3_lsb+0x1>
     5ee:	80 93 03 04 	sts	0x0403, r24	; 0x800403 <dig_P3_lsb>
	
	SPDR=0x00;
     5f2:	1e bc       	out	0x2e, r1	; 46
	while(!(SPSR&(1<<SPIF)));
     5f4:	0d b4       	in	r0, 0x2d	; 45
     5f6:	07 fe       	sbrs	r0, 7
     5f8:	fd cf       	rjmp	.-6      	; 0x5f4 <readCalib+0xf0>
	dig_P3_msb=SPDR;
     5fa:	8e b5       	in	r24, 0x2e	; 46
     5fc:	90 e0       	ldi	r25, 0x00	; 0
     5fe:	90 93 32 04 	sts	0x0432, r25	; 0x800432 <dig_P3_msb+0x1>
     602:	80 93 31 04 	sts	0x0431, r24	; 0x800431 <dig_P3_msb>
	
	SPDR=0x00;
     606:	1e bc       	out	0x2e, r1	; 46
	while(!(SPSR&(1<<SPIF)));
     608:	0d b4       	in	r0, 0x2d	; 45
     60a:	07 fe       	sbrs	r0, 7
     60c:	fd cf       	rjmp	.-6      	; 0x608 <readCalib+0x104>
	dig_P4_lsb=SPDR;
     60e:	8e b5       	in	r24, 0x2e	; 46
     610:	90 e0       	ldi	r25, 0x00	; 0
     612:	90 93 02 04 	sts	0x0402, r25	; 0x800402 <dig_P4_lsb+0x1>
     616:	80 93 01 04 	sts	0x0401, r24	; 0x800401 <dig_P4_lsb>
	
	SPDR=0x00;
     61a:	1e bc       	out	0x2e, r1	; 46
	while(!(SPSR&(1<<SPIF)));
     61c:	0d b4       	in	r0, 0x2d	; 45
     61e:	07 fe       	sbrs	r0, 7
     620:	fd cf       	rjmp	.-6      	; 0x61c <readCalib+0x118>
	dig_P4_msb=SPDR;
     622:	8e b5       	in	r24, 0x2e	; 46
     624:	90 e0       	ldi	r25, 0x00	; 0
     626:	90 93 22 04 	sts	0x0422, r25	; 0x800422 <dig_P4_msb+0x1>
     62a:	80 93 21 04 	sts	0x0421, r24	; 0x800421 <dig_P4_msb>
	
	SPDR=0x00;
     62e:	1e bc       	out	0x2e, r1	; 46
	while(!(SPSR&(1<<SPIF)));
     630:	0d b4       	in	r0, 0x2d	; 45
     632:	07 fe       	sbrs	r0, 7
     634:	fd cf       	rjmp	.-6      	; 0x630 <readCalib+0x12c>
	dig_P5_lsb=SPDR;
     636:	8e b5       	in	r24, 0x2e	; 46
     638:	90 e0       	ldi	r25, 0x00	; 0
     63a:	90 93 83 04 	sts	0x0483, r25	; 0x800483 <dig_P5_lsb+0x1>
     63e:	80 93 82 04 	sts	0x0482, r24	; 0x800482 <dig_P5_lsb>
	
	SPDR=0x00;
     642:	1e bc       	out	0x2e, r1	; 46
	while(!(SPSR&(1<<SPIF)));
     644:	0d b4       	in	r0, 0x2d	; 45
     646:	07 fe       	sbrs	r0, 7
     648:	fd cf       	rjmp	.-6      	; 0x644 <readCalib+0x140>
	dig_P5_msb=SPDR;
     64a:	8e b5       	in	r24, 0x2e	; 46
     64c:	90 e0       	ldi	r25, 0x00	; 0
     64e:	90 93 af 04 	sts	0x04AF, r25	; 0x8004af <dig_P5_msb+0x1>
     652:	80 93 ae 04 	sts	0x04AE, r24	; 0x8004ae <dig_P5_msb>
	
	SPDR=0x00;
     656:	1e bc       	out	0x2e, r1	; 46
	while(!(SPSR&(1<<SPIF)));
     658:	0d b4       	in	r0, 0x2d	; 45
     65a:	07 fe       	sbrs	r0, 7
     65c:	fd cf       	rjmp	.-6      	; 0x658 <readCalib+0x154>
	dig_P6_lsb=SPDR;
     65e:	8e b5       	in	r24, 0x2e	; 46
     660:	90 e0       	ldi	r25, 0x00	; 0
     662:	90 93 0b 04 	sts	0x040B, r25	; 0x80040b <dig_P6_lsb+0x1>
     666:	80 93 0a 04 	sts	0x040A, r24	; 0x80040a <dig_P6_lsb>
	
	SPDR=0x00;
     66a:	1e bc       	out	0x2e, r1	; 46
	while(!(SPSR&(1<<SPIF)));
     66c:	0d b4       	in	r0, 0x2d	; 45
     66e:	07 fe       	sbrs	r0, 7
     670:	fd cf       	rjmp	.-6      	; 0x66c <readCalib+0x168>
	dig_P6_msb=SPDR;
     672:	8e b5       	in	r24, 0x2e	; 46
     674:	90 e0       	ldi	r25, 0x00	; 0
     676:	90 93 62 04 	sts	0x0462, r25	; 0x800462 <dig_P6_msb+0x1>
     67a:	80 93 61 04 	sts	0x0461, r24	; 0x800461 <dig_P6_msb>
	
	SPDR=0x00;
     67e:	1e bc       	out	0x2e, r1	; 46
	while(!(SPSR&(1<<SPIF)));
     680:	0d b4       	in	r0, 0x2d	; 45
     682:	07 fe       	sbrs	r0, 7
     684:	fd cf       	rjmp	.-6      	; 0x680 <readCalib+0x17c>
	dig_P7_lsb=SPDR;
     686:	8e b5       	in	r24, 0x2e	; 46
     688:	90 e0       	ldi	r25, 0x00	; 0
     68a:	90 93 59 04 	sts	0x0459, r25	; 0x800459 <dig_P7_lsb+0x1>
     68e:	80 93 58 04 	sts	0x0458, r24	; 0x800458 <dig_P7_lsb>
	
	SPDR=0x00;
     692:	1e bc       	out	0x2e, r1	; 46
	while(!(SPSR&(1<<SPIF)));
     694:	0d b4       	in	r0, 0x2d	; 45
     696:	07 fe       	sbrs	r0, 7
     698:	fd cf       	rjmp	.-6      	; 0x694 <readCalib+0x190>
	dig_P7_msb=SPDR;
     69a:	8e b5       	in	r24, 0x2e	; 46
     69c:	90 e0       	ldi	r25, 0x00	; 0
     69e:	90 93 b5 04 	sts	0x04B5, r25	; 0x8004b5 <dig_P7_msb+0x1>
     6a2:	80 93 b4 04 	sts	0x04B4, r24	; 0x8004b4 <dig_P7_msb>
	
	SPDR=0x00;
     6a6:	1e bc       	out	0x2e, r1	; 46
	while(!(SPSR&(1<<SPIF)));
     6a8:	0d b4       	in	r0, 0x2d	; 45
     6aa:	07 fe       	sbrs	r0, 7
     6ac:	fd cf       	rjmp	.-6      	; 0x6a8 <readCalib+0x1a4>
	dig_P8_lsb=SPDR;
     6ae:	8e b5       	in	r24, 0x2e	; 46
     6b0:	90 e0       	ldi	r25, 0x00	; 0
     6b2:	90 93 68 04 	sts	0x0468, r25	; 0x800468 <dig_P8_lsb+0x1>
     6b6:	80 93 67 04 	sts	0x0467, r24	; 0x800467 <dig_P8_lsb>
	
	SPDR=0x00;
     6ba:	1e bc       	out	0x2e, r1	; 46
	while(!(SPSR&(1<<SPIF)));
     6bc:	0d b4       	in	r0, 0x2d	; 45
     6be:	07 fe       	sbrs	r0, 7
     6c0:	fd cf       	rjmp	.-6      	; 0x6bc <readCalib+0x1b8>
	dig_P8_msb=SPDR;
     6c2:	8e b5       	in	r24, 0x2e	; 46
     6c4:	90 e0       	ldi	r25, 0x00	; 0
     6c6:	90 93 7a 04 	sts	0x047A, r25	; 0x80047a <dig_P8_msb+0x1>
     6ca:	80 93 79 04 	sts	0x0479, r24	; 0x800479 <dig_P8_msb>
	
	SPDR=0x00;
     6ce:	1e bc       	out	0x2e, r1	; 46
	while(!(SPSR&(1<<SPIF)));
     6d0:	0d b4       	in	r0, 0x2d	; 45
     6d2:	07 fe       	sbrs	r0, 7
     6d4:	fd cf       	rjmp	.-6      	; 0x6d0 <readCalib+0x1cc>
	dig_P9_lsb=SPDR;
     6d6:	8e b5       	in	r24, 0x2e	; 46
     6d8:	90 e0       	ldi	r25, 0x00	; 0
     6da:	90 93 7c 04 	sts	0x047C, r25	; 0x80047c <dig_P9_lsb+0x1>
     6de:	80 93 7b 04 	sts	0x047B, r24	; 0x80047b <dig_P9_lsb>
	
	SPDR=0x00;
     6e2:	1e bc       	out	0x2e, r1	; 46
	while(!(SPSR&(1<<SPIF)));
     6e4:	0d b4       	in	r0, 0x2d	; 45
     6e6:	07 fe       	sbrs	r0, 7
     6e8:	fd cf       	rjmp	.-6      	; 0x6e4 <readCalib+0x1e0>
	dig_P9_msb=SPDR;
     6ea:	8e b5       	in	r24, 0x2e	; 46
     6ec:	90 e0       	ldi	r25, 0x00	; 0
     6ee:	90 93 2c 04 	sts	0x042C, r25	; 0x80042c <dig_P9_msb+0x1>
     6f2:	80 93 2b 04 	sts	0x042B, r24	; 0x80042b <dig_P9_msb>
	
	
	// combining msb and lsb for dig_p1 to dig_p9 to get the actual reg value 
	
	dig_T1=(int16_t)(dig_T1_msb<<8)|(int16_t)dig_T1_lsb;
     6f6:	40 e0       	ldi	r20, 0x00	; 0
     6f8:	50 e0       	ldi	r21, 0x00	; 0
     6fa:	50 91 77 04 	lds	r21, 0x0477	; 0x800477 <dig_T1_msb>
     6fe:	20 91 fa 03 	lds	r18, 0x03FA	; 0x8003fa <dig_T1_lsb>
     702:	30 91 fb 03 	lds	r19, 0x03FB	; 0x8003fb <dig_T1_lsb+0x1>
     706:	24 2b       	or	r18, r20
     708:	35 2b       	or	r19, r21
     70a:	30 93 ff 03 	sts	0x03FF, r19	; 0x8003ff <dig_T1+0x1>
     70e:	20 93 fe 03 	sts	0x03FE, r18	; 0x8003fe <dig_T1>
	dig_T2=(int16_t)(dig_T2_msb<<8)|(int16_t)dig_T2_lsb;
     712:	50 91 7d 04 	lds	r21, 0x047D	; 0x80047d <dig_T2_msb>
     716:	20 91 63 04 	lds	r18, 0x0463	; 0x800463 <dig_T2_lsb>
     71a:	30 91 64 04 	lds	r19, 0x0464	; 0x800464 <dig_T2_lsb+0x1>
     71e:	24 2b       	or	r18, r20
     720:	35 2b       	or	r19, r21
     722:	30 93 0d 04 	sts	0x040D, r19	; 0x80040d <dig_T2+0x1>
     726:	20 93 0c 04 	sts	0x040C, r18	; 0x80040c <dig_T2>
	dig_T3=(int16_t)(dig_T3_msb<<8)|(int16_t)dig_T3_lsb;
     72a:	50 91 ac 04 	lds	r21, 0x04AC	; 0x8004ac <dig_T3_msb>
     72e:	20 91 0e 04 	lds	r18, 0x040E	; 0x80040e <dig_T3_lsb>
     732:	30 91 0f 04 	lds	r19, 0x040F	; 0x80040f <dig_T3_lsb+0x1>
     736:	24 2b       	or	r18, r20
     738:	35 2b       	or	r19, r21
     73a:	30 93 a9 04 	sts	0x04A9, r19	; 0x8004a9 <dig_T3+0x1>
     73e:	20 93 a8 04 	sts	0x04A8, r18	; 0x8004a8 <dig_T3>
	
	dig_P1=(int16_t)(dig_P1_msb<<8)|(int16_t)dig_P1_lsb;
     742:	40 e0       	ldi	r20, 0x00	; 0
     744:	50 e0       	ldi	r21, 0x00	; 0
     746:	50 91 7f 04 	lds	r21, 0x047F	; 0x80047f <dig_P1_msb>
     74a:	20 91 a4 04 	lds	r18, 0x04A4	; 0x8004a4 <dig_P1_lsb>
     74e:	30 91 a5 04 	lds	r19, 0x04A5	; 0x8004a5 <dig_P1_lsb+0x1>
     752:	24 2b       	or	r18, r20
     754:	35 2b       	or	r19, r21
     756:	30 93 71 04 	sts	0x0471, r19	; 0x800471 <dig_P1+0x1>
     75a:	20 93 70 04 	sts	0x0470, r18	; 0x800470 <dig_P1>
	dig_P2=(int16_t)(dig_P2_msb<<8)|(int16_t)dig_P2_lsb;
     75e:	40 e0       	ldi	r20, 0x00	; 0
     760:	50 e0       	ldi	r21, 0x00	; 0
     762:	50 91 65 04 	lds	r21, 0x0465	; 0x800465 <dig_P2_msb>
     766:	20 91 6e 04 	lds	r18, 0x046E	; 0x80046e <dig_P2_lsb>
     76a:	30 91 6f 04 	lds	r19, 0x046F	; 0x80046f <dig_P2_lsb+0x1>
     76e:	24 2b       	or	r18, r20
     770:	35 2b       	or	r19, r21
     772:	30 93 2e 04 	sts	0x042E, r19	; 0x80042e <dig_P2+0x1>
     776:	20 93 2d 04 	sts	0x042D, r18	; 0x80042d <dig_P2>
	dig_P3=(int16_t)(dig_P3_msb<<8)|(int16_t)dig_P3_lsb;
     77a:	40 e0       	ldi	r20, 0x00	; 0
     77c:	50 e0       	ldi	r21, 0x00	; 0
     77e:	50 91 31 04 	lds	r21, 0x0431	; 0x800431 <dig_P3_msb>
     782:	20 91 03 04 	lds	r18, 0x0403	; 0x800403 <dig_P3_lsb>
     786:	30 91 04 04 	lds	r19, 0x0404	; 0x800404 <dig_P3_lsb+0x1>
     78a:	24 2b       	or	r18, r20
     78c:	35 2b       	or	r19, r21
     78e:	30 93 73 04 	sts	0x0473, r19	; 0x800473 <dig_P3+0x1>
     792:	20 93 72 04 	sts	0x0472, r18	; 0x800472 <dig_P3>
	dig_P4=(int16_t)(dig_P4_msb<<8)|(int16_t)dig_P4_lsb;
     796:	40 e0       	ldi	r20, 0x00	; 0
     798:	50 e0       	ldi	r21, 0x00	; 0
     79a:	50 91 21 04 	lds	r21, 0x0421	; 0x800421 <dig_P4_msb>
     79e:	20 91 01 04 	lds	r18, 0x0401	; 0x800401 <dig_P4_lsb>
     7a2:	30 91 02 04 	lds	r19, 0x0402	; 0x800402 <dig_P4_lsb+0x1>
     7a6:	24 2b       	or	r18, r20
     7a8:	35 2b       	or	r19, r21
     7aa:	30 93 30 04 	sts	0x0430, r19	; 0x800430 <dig_P4+0x1>
     7ae:	20 93 2f 04 	sts	0x042F, r18	; 0x80042f <dig_P4>
	dig_P5=(int16_t)(dig_P5_msb<<8)|(int16_t)dig_P5_lsb;
     7b2:	40 e0       	ldi	r20, 0x00	; 0
     7b4:	50 e0       	ldi	r21, 0x00	; 0
     7b6:	50 91 ae 04 	lds	r21, 0x04AE	; 0x8004ae <dig_P5_msb>
     7ba:	20 91 82 04 	lds	r18, 0x0482	; 0x800482 <dig_P5_lsb>
     7be:	30 91 83 04 	lds	r19, 0x0483	; 0x800483 <dig_P5_lsb+0x1>
     7c2:	24 2b       	or	r18, r20
     7c4:	35 2b       	or	r19, r21
     7c6:	30 93 60 04 	sts	0x0460, r19	; 0x800460 <dig_P5+0x1>
     7ca:	20 93 5f 04 	sts	0x045F, r18	; 0x80045f <dig_P5>
	dig_P6=(int16_t)(dig_P6_msb<<8)|(int16_t)dig_P6_lsb;
     7ce:	40 e0       	ldi	r20, 0x00	; 0
     7d0:	50 e0       	ldi	r21, 0x00	; 0
     7d2:	50 91 61 04 	lds	r21, 0x0461	; 0x800461 <dig_P6_msb>
     7d6:	20 91 0a 04 	lds	r18, 0x040A	; 0x80040a <dig_P6_lsb>
     7da:	30 91 0b 04 	lds	r19, 0x040B	; 0x80040b <dig_P6_lsb+0x1>
     7de:	24 2b       	or	r18, r20
     7e0:	35 2b       	or	r19, r21
     7e2:	30 93 ab 04 	sts	0x04AB, r19	; 0x8004ab <dig_P6+0x1>
     7e6:	20 93 aa 04 	sts	0x04AA, r18	; 0x8004aa <dig_P6>
	dig_P7=(int16_t)(dig_P7_msb<<8)|(int16_t)dig_P7_lsb;
     7ea:	40 e0       	ldi	r20, 0x00	; 0
     7ec:	50 e0       	ldi	r21, 0x00	; 0
     7ee:	50 91 b4 04 	lds	r21, 0x04B4	; 0x8004b4 <dig_P7_msb>
     7f2:	20 91 58 04 	lds	r18, 0x0458	; 0x800458 <dig_P7_lsb>
     7f6:	30 91 59 04 	lds	r19, 0x0459	; 0x800459 <dig_P7_lsb+0x1>
     7fa:	24 2b       	or	r18, r20
     7fc:	35 2b       	or	r19, r21
     7fe:	30 93 fd 03 	sts	0x03FD, r19	; 0x8003fd <dig_P7+0x1>
     802:	20 93 fc 03 	sts	0x03FC, r18	; 0x8003fc <dig_P7>
	dig_P8=(int16_t)(dig_P8_msb<<8)|(int16_t)dig_P8_lsb;
     806:	40 e0       	ldi	r20, 0x00	; 0
     808:	50 e0       	ldi	r21, 0x00	; 0
     80a:	50 91 79 04 	lds	r21, 0x0479	; 0x800479 <dig_P8_msb>
     80e:	20 91 67 04 	lds	r18, 0x0467	; 0x800467 <dig_P8_lsb>
     812:	30 91 68 04 	lds	r19, 0x0468	; 0x800468 <dig_P8_lsb+0x1>
     816:	24 2b       	or	r18, r20
     818:	35 2b       	or	r19, r21
     81a:	30 93 75 04 	sts	0x0475, r19	; 0x800475 <dig_P8+0x1>
     81e:	20 93 74 04 	sts	0x0474, r18	; 0x800474 <dig_P8>
	dig_P9=(int16_t)(dig_P9_msb<<8)|(int16_t)dig_P9_lsb;
     822:	98 2f       	mov	r25, r24
     824:	88 27       	eor	r24, r24
     826:	20 91 7b 04 	lds	r18, 0x047B	; 0x80047b <dig_P9_lsb>
     82a:	30 91 7c 04 	lds	r19, 0x047C	; 0x80047c <dig_P9_lsb+0x1>
     82e:	82 2b       	or	r24, r18
     830:	93 2b       	or	r25, r19
     832:	90 93 a7 04 	sts	0x04A7, r25	; 0x8004a7 <dig_P9+0x1>
     836:	80 93 a6 04 	sts	0x04A6, r24	; 0x8004a6 <dig_P9>
     83a:	08 95       	ret

0000083c <realPressure>:
	UART_TxString("\r\n");
	*/
}

void realPressure(void)
{
     83c:	4f 92       	push	r4
     83e:	5f 92       	push	r5
     840:	6f 92       	push	r6
     842:	7f 92       	push	r7
     844:	8f 92       	push	r8
     846:	9f 92       	push	r9
     848:	af 92       	push	r10
     84a:	bf 92       	push	r11
     84c:	cf 92       	push	r12
     84e:	df 92       	push	r13
     850:	ef 92       	push	r14
     852:	ff 92       	push	r15
	float var1=0, var2=0, p=0;
	var1=((double)t_fine)/2.0-64000.0;
     854:	60 91 b0 04 	lds	r22, 0x04B0	; 0x8004b0 <t_fine>
     858:	70 91 b1 04 	lds	r23, 0x04B1	; 0x8004b1 <t_fine+0x1>
     85c:	80 91 b2 04 	lds	r24, 0x04B2	; 0x8004b2 <t_fine+0x2>
     860:	90 91 b3 04 	lds	r25, 0x04B3	; 0x8004b3 <t_fine+0x3>
     864:	20 e0       	ldi	r18, 0x00	; 0
     866:	30 e0       	ldi	r19, 0x00	; 0
     868:	40 e0       	ldi	r20, 0x00	; 0
     86a:	5f e3       	ldi	r21, 0x3F	; 63
     86c:	0e 94 b7 0b 	call	0x176e	; 0x176e <__mulsf3>
     870:	20 e0       	ldi	r18, 0x00	; 0
     872:	30 e0       	ldi	r19, 0x00	; 0
     874:	4a e7       	ldi	r20, 0x7A	; 122
     876:	57 e4       	ldi	r21, 0x47	; 71
     878:	0e 94 eb 09 	call	0x13d6	; 0x13d6 <__subsf3>
     87c:	6b 01       	movw	r12, r22
     87e:	7c 01       	movw	r14, r24
	var2=var1*var2*((double)dig_P6)/32768.0;
     880:	20 e0       	ldi	r18, 0x00	; 0
     882:	30 e0       	ldi	r19, 0x00	; 0
     884:	a9 01       	movw	r20, r18
     886:	0e 94 b7 0b 	call	0x176e	; 0x176e <__mulsf3>
     88a:	4b 01       	movw	r8, r22
     88c:	5c 01       	movw	r10, r24
     88e:	60 91 aa 04 	lds	r22, 0x04AA	; 0x8004aa <dig_P6>
     892:	70 91 ab 04 	lds	r23, 0x04AB	; 0x8004ab <dig_P6+0x1>
     896:	07 2e       	mov	r0, r23
     898:	00 0c       	add	r0, r0
     89a:	88 0b       	sbc	r24, r24
     89c:	99 0b       	sbc	r25, r25
     89e:	0e 94 07 0b 	call	0x160e	; 0x160e <__floatsisf>
     8a2:	9b 01       	movw	r18, r22
     8a4:	ac 01       	movw	r20, r24
     8a6:	c5 01       	movw	r24, r10
     8a8:	b4 01       	movw	r22, r8
     8aa:	0e 94 b7 0b 	call	0x176e	; 0x176e <__mulsf3>
     8ae:	20 e0       	ldi	r18, 0x00	; 0
     8b0:	30 e0       	ldi	r19, 0x00	; 0
     8b2:	40 e0       	ldi	r20, 0x00	; 0
     8b4:	58 e3       	ldi	r21, 0x38	; 56
     8b6:	0e 94 b7 0b 	call	0x176e	; 0x176e <__mulsf3>
     8ba:	9b 01       	movw	r18, r22
     8bc:	ac 01       	movw	r20, r24
	var2=var2*var1*((double)dig_P5)*2.0;
     8be:	c7 01       	movw	r24, r14
     8c0:	b6 01       	movw	r22, r12
     8c2:	0e 94 b7 0b 	call	0x176e	; 0x176e <__mulsf3>
     8c6:	4b 01       	movw	r8, r22
     8c8:	5c 01       	movw	r10, r24
     8ca:	60 91 5f 04 	lds	r22, 0x045F	; 0x80045f <dig_P5>
     8ce:	70 91 60 04 	lds	r23, 0x0460	; 0x800460 <dig_P5+0x1>
     8d2:	07 2e       	mov	r0, r23
     8d4:	00 0c       	add	r0, r0
     8d6:	88 0b       	sbc	r24, r24
     8d8:	99 0b       	sbc	r25, r25
     8da:	0e 94 07 0b 	call	0x160e	; 0x160e <__floatsisf>
     8de:	9b 01       	movw	r18, r22
     8e0:	ac 01       	movw	r20, r24
     8e2:	c5 01       	movw	r24, r10
     8e4:	b4 01       	movw	r22, r8
     8e6:	0e 94 b7 0b 	call	0x176e	; 0x176e <__mulsf3>
     8ea:	9b 01       	movw	r18, r22
     8ec:	ac 01       	movw	r20, r24
     8ee:	0e 94 ec 09 	call	0x13d8	; 0x13d8 <__addsf3>
	var2=((var2/4.0)+((double)dig_P4)*65536.0);
     8f2:	20 e0       	ldi	r18, 0x00	; 0
     8f4:	30 e0       	ldi	r19, 0x00	; 0
     8f6:	40 e8       	ldi	r20, 0x80	; 128
     8f8:	5e e3       	ldi	r21, 0x3E	; 62
     8fa:	0e 94 b7 0b 	call	0x176e	; 0x176e <__mulsf3>
     8fe:	4b 01       	movw	r8, r22
     900:	5c 01       	movw	r10, r24
     902:	60 91 2f 04 	lds	r22, 0x042F	; 0x80042f <dig_P4>
     906:	70 91 30 04 	lds	r23, 0x0430	; 0x800430 <dig_P4+0x1>
     90a:	07 2e       	mov	r0, r23
     90c:	00 0c       	add	r0, r0
     90e:	88 0b       	sbc	r24, r24
     910:	99 0b       	sbc	r25, r25
     912:	0e 94 07 0b 	call	0x160e	; 0x160e <__floatsisf>
     916:	20 e0       	ldi	r18, 0x00	; 0
     918:	30 e0       	ldi	r19, 0x00	; 0
     91a:	40 e8       	ldi	r20, 0x80	; 128
     91c:	57 e4       	ldi	r21, 0x47	; 71
     91e:	0e 94 b7 0b 	call	0x176e	; 0x176e <__mulsf3>
     922:	9b 01       	movw	r18, r22
     924:	ac 01       	movw	r20, r24
     926:	c5 01       	movw	r24, r10
     928:	b4 01       	movw	r22, r8
     92a:	0e 94 ec 09 	call	0x13d8	; 0x13d8 <__addsf3>
     92e:	4b 01       	movw	r8, r22
     930:	5c 01       	movw	r10, r24
	var1=(((double)dig_P3)*var1*var1/524288.0+((double)dig_P2)*var1)/524288.0;
     932:	60 91 72 04 	lds	r22, 0x0472	; 0x800472 <dig_P3>
     936:	70 91 73 04 	lds	r23, 0x0473	; 0x800473 <dig_P3+0x1>
     93a:	07 2e       	mov	r0, r23
     93c:	00 0c       	add	r0, r0
     93e:	88 0b       	sbc	r24, r24
     940:	99 0b       	sbc	r25, r25
     942:	0e 94 07 0b 	call	0x160e	; 0x160e <__floatsisf>
     946:	9b 01       	movw	r18, r22
     948:	ac 01       	movw	r20, r24
     94a:	c7 01       	movw	r24, r14
     94c:	b6 01       	movw	r22, r12
     94e:	0e 94 b7 0b 	call	0x176e	; 0x176e <__mulsf3>
     952:	9b 01       	movw	r18, r22
     954:	ac 01       	movw	r20, r24
     956:	c7 01       	movw	r24, r14
     958:	b6 01       	movw	r22, r12
     95a:	0e 94 b7 0b 	call	0x176e	; 0x176e <__mulsf3>
     95e:	20 e0       	ldi	r18, 0x00	; 0
     960:	30 e0       	ldi	r19, 0x00	; 0
     962:	40 e0       	ldi	r20, 0x00	; 0
     964:	56 e3       	ldi	r21, 0x36	; 54
     966:	0e 94 b7 0b 	call	0x176e	; 0x176e <__mulsf3>
     96a:	2b 01       	movw	r4, r22
     96c:	3c 01       	movw	r6, r24
     96e:	60 91 2d 04 	lds	r22, 0x042D	; 0x80042d <dig_P2>
     972:	70 91 2e 04 	lds	r23, 0x042E	; 0x80042e <dig_P2+0x1>
     976:	07 2e       	mov	r0, r23
     978:	00 0c       	add	r0, r0
     97a:	88 0b       	sbc	r24, r24
     97c:	99 0b       	sbc	r25, r25
     97e:	0e 94 07 0b 	call	0x160e	; 0x160e <__floatsisf>
     982:	9b 01       	movw	r18, r22
     984:	ac 01       	movw	r20, r24
     986:	c7 01       	movw	r24, r14
     988:	b6 01       	movw	r22, r12
     98a:	0e 94 b7 0b 	call	0x176e	; 0x176e <__mulsf3>
     98e:	9b 01       	movw	r18, r22
     990:	ac 01       	movw	r20, r24
     992:	c3 01       	movw	r24, r6
     994:	b2 01       	movw	r22, r4
     996:	0e 94 ec 09 	call	0x13d8	; 0x13d8 <__addsf3>
     99a:	20 e0       	ldi	r18, 0x00	; 0
     99c:	30 e0       	ldi	r19, 0x00	; 0
     99e:	40 e0       	ldi	r20, 0x00	; 0
     9a0:	56 e3       	ldi	r21, 0x36	; 54
     9a2:	0e 94 b7 0b 	call	0x176e	; 0x176e <__mulsf3>
	var1=(1.0+var1/32768.0)*((double)dig_P1);
     9a6:	20 e0       	ldi	r18, 0x00	; 0
     9a8:	30 e0       	ldi	r19, 0x00	; 0
     9aa:	40 e0       	ldi	r20, 0x00	; 0
     9ac:	58 e3       	ldi	r21, 0x38	; 56
     9ae:	0e 94 b7 0b 	call	0x176e	; 0x176e <__mulsf3>
     9b2:	20 e0       	ldi	r18, 0x00	; 0
     9b4:	30 e0       	ldi	r19, 0x00	; 0
     9b6:	40 e8       	ldi	r20, 0x80	; 128
     9b8:	5f e3       	ldi	r21, 0x3F	; 63
     9ba:	0e 94 ec 09 	call	0x13d8	; 0x13d8 <__addsf3>
     9be:	6b 01       	movw	r12, r22
     9c0:	7c 01       	movw	r14, r24
     9c2:	60 91 70 04 	lds	r22, 0x0470	; 0x800470 <dig_P1>
     9c6:	70 91 71 04 	lds	r23, 0x0471	; 0x800471 <dig_P1+0x1>
     9ca:	80 e0       	ldi	r24, 0x00	; 0
     9cc:	90 e0       	ldi	r25, 0x00	; 0
     9ce:	0e 94 05 0b 	call	0x160a	; 0x160a <__floatunsisf>
     9d2:	9b 01       	movw	r18, r22
     9d4:	ac 01       	movw	r20, r24
     9d6:	c7 01       	movw	r24, r14
     9d8:	b6 01       	movw	r22, r12
     9da:	0e 94 b7 0b 	call	0x176e	; 0x176e <__mulsf3>
     9de:	6b 01       	movw	r12, r22
     9e0:	7c 01       	movw	r14, r24
	p=1048576.0-(double)rawPressure;
     9e2:	60 91 f0 03 	lds	r22, 0x03F0	; 0x8003f0 <__data_end>
     9e6:	70 91 f1 03 	lds	r23, 0x03F1	; 0x8003f1 <__data_end+0x1>
     9ea:	80 91 f2 03 	lds	r24, 0x03F2	; 0x8003f2 <__data_end+0x2>
     9ee:	90 91 f3 03 	lds	r25, 0x03F3	; 0x8003f3 <__data_end+0x3>
     9f2:	0e 94 05 0b 	call	0x160a	; 0x160a <__floatunsisf>
     9f6:	9b 01       	movw	r18, r22
     9f8:	ac 01       	movw	r20, r24
     9fa:	60 e0       	ldi	r22, 0x00	; 0
     9fc:	70 e0       	ldi	r23, 0x00	; 0
     9fe:	80 e8       	ldi	r24, 0x80	; 128
     a00:	99 e4       	ldi	r25, 0x49	; 73
     a02:	0e 94 eb 09 	call	0x13d6	; 0x13d6 <__subsf3>
     a06:	2b 01       	movw	r4, r22
     a08:	3c 01       	movw	r6, r24
	p=(p-(var2/4096.0))*6250.0/var1;
     a0a:	20 e0       	ldi	r18, 0x00	; 0
     a0c:	30 e0       	ldi	r19, 0x00	; 0
     a0e:	40 e8       	ldi	r20, 0x80	; 128
     a10:	59 e3       	ldi	r21, 0x39	; 57
     a12:	c5 01       	movw	r24, r10
     a14:	b4 01       	movw	r22, r8
     a16:	0e 94 b7 0b 	call	0x176e	; 0x176e <__mulsf3>
     a1a:	9b 01       	movw	r18, r22
     a1c:	ac 01       	movw	r20, r24
     a1e:	c3 01       	movw	r24, r6
     a20:	b2 01       	movw	r22, r4
     a22:	0e 94 eb 09 	call	0x13d6	; 0x13d6 <__subsf3>
     a26:	20 e0       	ldi	r18, 0x00	; 0
     a28:	30 e5       	ldi	r19, 0x50	; 80
     a2a:	43 ec       	ldi	r20, 0xC3	; 195
     a2c:	55 e4       	ldi	r21, 0x45	; 69
     a2e:	0e 94 b7 0b 	call	0x176e	; 0x176e <__mulsf3>
     a32:	a7 01       	movw	r20, r14
     a34:	96 01       	movw	r18, r12
     a36:	0e 94 5d 0a 	call	0x14ba	; 0x14ba <__divsf3>
     a3a:	6b 01       	movw	r12, r22
     a3c:	7c 01       	movw	r14, r24
	var1=((double)dig_P9)*p*p/2147483648.0;
     a3e:	60 91 a6 04 	lds	r22, 0x04A6	; 0x8004a6 <dig_P9>
     a42:	70 91 a7 04 	lds	r23, 0x04A7	; 0x8004a7 <dig_P9+0x1>
     a46:	07 2e       	mov	r0, r23
     a48:	00 0c       	add	r0, r0
     a4a:	88 0b       	sbc	r24, r24
     a4c:	99 0b       	sbc	r25, r25
     a4e:	0e 94 07 0b 	call	0x160e	; 0x160e <__floatsisf>
     a52:	9b 01       	movw	r18, r22
     a54:	ac 01       	movw	r20, r24
     a56:	c7 01       	movw	r24, r14
     a58:	b6 01       	movw	r22, r12
     a5a:	0e 94 b7 0b 	call	0x176e	; 0x176e <__mulsf3>
     a5e:	9b 01       	movw	r18, r22
     a60:	ac 01       	movw	r20, r24
     a62:	c7 01       	movw	r24, r14
     a64:	b6 01       	movw	r22, r12
     a66:	0e 94 b7 0b 	call	0x176e	; 0x176e <__mulsf3>
     a6a:	20 e0       	ldi	r18, 0x00	; 0
     a6c:	30 e0       	ldi	r19, 0x00	; 0
     a6e:	40 e0       	ldi	r20, 0x00	; 0
     a70:	50 e3       	ldi	r21, 0x30	; 48
     a72:	0e 94 b7 0b 	call	0x176e	; 0x176e <__mulsf3>
     a76:	4b 01       	movw	r8, r22
     a78:	5c 01       	movw	r10, r24
	var2=p*((double)dig_P8)/32768.0;
     a7a:	60 91 74 04 	lds	r22, 0x0474	; 0x800474 <dig_P8>
     a7e:	70 91 75 04 	lds	r23, 0x0475	; 0x800475 <dig_P8+0x1>
     a82:	07 2e       	mov	r0, r23
     a84:	00 0c       	add	r0, r0
     a86:	88 0b       	sbc	r24, r24
     a88:	99 0b       	sbc	r25, r25
     a8a:	0e 94 07 0b 	call	0x160e	; 0x160e <__floatsisf>
     a8e:	9b 01       	movw	r18, r22
     a90:	ac 01       	movw	r20, r24
     a92:	c7 01       	movw	r24, r14
     a94:	b6 01       	movw	r22, r12
     a96:	0e 94 b7 0b 	call	0x176e	; 0x176e <__mulsf3>
     a9a:	20 e0       	ldi	r18, 0x00	; 0
     a9c:	30 e0       	ldi	r19, 0x00	; 0
     a9e:	40 e0       	ldi	r20, 0x00	; 0
     aa0:	58 e3       	ldi	r21, 0x38	; 56
     aa2:	0e 94 b7 0b 	call	0x176e	; 0x176e <__mulsf3>
     aa6:	9b 01       	movw	r18, r22
     aa8:	ac 01       	movw	r20, r24
	p=p+(var1+var2+((double)dig_P7))/16.0;
     aaa:	c5 01       	movw	r24, r10
     aac:	b4 01       	movw	r22, r8
     aae:	0e 94 ec 09 	call	0x13d8	; 0x13d8 <__addsf3>
     ab2:	4b 01       	movw	r8, r22
     ab4:	5c 01       	movw	r10, r24
     ab6:	60 91 fc 03 	lds	r22, 0x03FC	; 0x8003fc <dig_P7>
     aba:	70 91 fd 03 	lds	r23, 0x03FD	; 0x8003fd <dig_P7+0x1>
     abe:	07 2e       	mov	r0, r23
     ac0:	00 0c       	add	r0, r0
     ac2:	88 0b       	sbc	r24, r24
     ac4:	99 0b       	sbc	r25, r25
     ac6:	0e 94 07 0b 	call	0x160e	; 0x160e <__floatsisf>
     aca:	9b 01       	movw	r18, r22
     acc:	ac 01       	movw	r20, r24
     ace:	c5 01       	movw	r24, r10
     ad0:	b4 01       	movw	r22, r8
     ad2:	0e 94 ec 09 	call	0x13d8	; 0x13d8 <__addsf3>
     ad6:	20 e0       	ldi	r18, 0x00	; 0
     ad8:	30 e0       	ldi	r19, 0x00	; 0
     ada:	40 e8       	ldi	r20, 0x80	; 128
     adc:	5d e3       	ldi	r21, 0x3D	; 61
     ade:	0e 94 b7 0b 	call	0x176e	; 0x176e <__mulsf3>
     ae2:	9b 01       	movw	r18, r22
     ae4:	ac 01       	movw	r20, r24
     ae6:	c7 01       	movw	r24, r14
     ae8:	b6 01       	movw	r22, r12
     aea:	0e 94 ec 09 	call	0x13d8	; 0x13d8 <__addsf3>
	p=p/100;
     aee:	20 e0       	ldi	r18, 0x00	; 0
     af0:	30 e0       	ldi	r19, 0x00	; 0
     af2:	48 ec       	ldi	r20, 0xC8	; 200
     af4:	52 e4       	ldi	r21, 0x42	; 66
     af6:	0e 94 5d 0a 	call	0x14ba	; 0x14ba <__divsf3>
     afa:	6b 01       	movw	r12, r22
     afc:	7c 01       	movw	r14, r24
	UART_TxString("\nAtm. Pressure: ");
     afe:	80 e9       	ldi	r24, 0x90	; 144
     b00:	91 e0       	ldi	r25, 0x01	; 1
     b02:	0e 94 f2 08 	call	0x11e4	; 0x11e4 <UART_TxString>
	UART_TxFloat(p, 2);UART_TxString(" hPa");
     b06:	42 e0       	ldi	r20, 0x02	; 2
     b08:	c7 01       	movw	r24, r14
     b0a:	b6 01       	movw	r22, r12
     b0c:	0e 94 1a 09 	call	0x1234	; 0x1234 <UART_TxFloat>
     b10:	81 ea       	ldi	r24, 0xA1	; 161
     b12:	91 e0       	ldi	r25, 0x01	; 1
     b14:	0e 94 f2 08 	call	0x11e4	; 0x11e4 <UART_TxString>
	UART_TxString("\n");
     b18:	87 e5       	ldi	r24, 0x57	; 87
     b1a:	91 e0       	ldi	r25, 0x01	; 1
     b1c:	0e 94 f2 08 	call	0x11e4	; 0x11e4 <UART_TxString>
// 	OLED_SetCursor(7, 0);
// 	sprintf(buffer2, " %.2f", p);
//  	OLED_String(buffer2);
//  	OLED_String(" hPa");

	OLED_SetCursor(7,20);
     b20:	64 e1       	ldi	r22, 0x14	; 20
     b22:	87 e0       	ldi	r24, 0x07	; 7
     b24:	0e 94 9f 06 	call	0xd3e	; 0xd3e <OLED_SetCursor>
	OLED_PrintFloat_2Decimal(p);
     b28:	c7 01       	movw	r24, r14
     b2a:	b6 01       	movw	r22, r12
     b2c:	0e 94 da 07 	call	0xfb4	; 0xfb4 <OLED_PrintFloat_2Decimal>
	OLED_String(" hPa");
     b30:	81 ea       	ldi	r24, 0xA1	; 161
     b32:	91 e0       	ldi	r25, 0x01	; 1
     b34:	0e 94 4d 07 	call	0xe9a	; 0xe9a <OLED_String>

	
     b38:	ff 90       	pop	r15
     b3a:	ef 90       	pop	r14
     b3c:	df 90       	pop	r13
     b3e:	cf 90       	pop	r12
     b40:	bf 90       	pop	r11
     b42:	af 90       	pop	r10
     b44:	9f 90       	pop	r9
     b46:	8f 90       	pop	r8
     b48:	7f 90       	pop	r7
     b4a:	6f 90       	pop	r6
     b4c:	5f 90       	pop	r5
     b4e:	4f 90       	pop	r4
     b50:	08 95       	ret

00000b52 <BCD_to_DEC>:
	TWI_Write(DEC_to_BCD(dd));        // Day (131)
	TWI_Write(DEC_to_BCD(mm));        // Month (112)
	TWI_Write(DEC_to_BCD(yy));        // Year (0099)

	TWI_Stop();
}
     b52:	98 2f       	mov	r25, r24
     b54:	92 95       	swap	r25
     b56:	9f 70       	andi	r25, 0x0F	; 15
     b58:	99 0f       	add	r25, r25
     b5a:	29 2f       	mov	r18, r25
     b5c:	22 0f       	add	r18, r18
     b5e:	22 0f       	add	r18, r18
     b60:	92 0f       	add	r25, r18
     b62:	8f 70       	andi	r24, 0x0F	; 15
     b64:	89 0f       	add	r24, r25
     b66:	08 95       	ret

00000b68 <DS1307_ReadTimeDate>:
     b68:	2f 92       	push	r2
     b6a:	3f 92       	push	r3
     b6c:	4f 92       	push	r4
     b6e:	5f 92       	push	r5
     b70:	6f 92       	push	r6
     b72:	7f 92       	push	r7
     b74:	8f 92       	push	r8
     b76:	9f 92       	push	r9
     b78:	af 92       	push	r10
     b7a:	bf 92       	push	r11
     b7c:	cf 92       	push	r12
     b7e:	df 92       	push	r13
     b80:	ef 92       	push	r14
     b82:	ff 92       	push	r15
     b84:	0f 93       	push	r16
     b86:	1f 93       	push	r17
     b88:	cf 93       	push	r28
     b8a:	df 93       	push	r29
     b8c:	6c 01       	movw	r12, r24
     b8e:	5b 01       	movw	r10, r22
     b90:	4a 01       	movw	r8, r20
     b92:	e9 01       	movw	r28, r18
     b94:	0e 94 46 06 	call	0xc8c	; 0xc8c <TWI_Start>
     b98:	80 ed       	ldi	r24, 0xD0	; 208
     b9a:	0e 94 52 06 	call	0xca4	; 0xca4 <TWI_Write>
     b9e:	80 e0       	ldi	r24, 0x00	; 0
     ba0:	0e 94 52 06 	call	0xca4	; 0xca4 <TWI_Write>
     ba4:	0e 94 46 06 	call	0xc8c	; 0xc8c <TWI_Start>
     ba8:	81 ed       	ldi	r24, 0xD1	; 209
     baa:	0e 94 52 06 	call	0xca4	; 0xca4 <TWI_Write>
     bae:	0e 94 66 06 	call	0xccc	; 0xccc <TWI_Read_ACK>
     bb2:	28 2e       	mov	r2, r24
     bb4:	0e 94 66 06 	call	0xccc	; 0xccc <TWI_Read_ACK>
     bb8:	38 2e       	mov	r3, r24
     bba:	0e 94 66 06 	call	0xccc	; 0xccc <TWI_Read_ACK>
     bbe:	48 2e       	mov	r4, r24
     bc0:	0e 94 66 06 	call	0xccc	; 0xccc <TWI_Read_ACK>
     bc4:	0e 94 66 06 	call	0xccc	; 0xccc <TWI_Read_ACK>
     bc8:	58 2e       	mov	r5, r24
     bca:	0e 94 66 06 	call	0xccc	; 0xccc <TWI_Read_ACK>
     bce:	68 2e       	mov	r6, r24
     bd0:	0e 94 5c 06 	call	0xcb8	; 0xcb8 <TWI_Read_NACK>
     bd4:	78 2e       	mov	r7, r24
     bd6:	0e 94 4e 06 	call	0xc9c	; 0xc9c <TWI_Stop>
     bda:	82 2d       	mov	r24, r2
     bdc:	8f 77       	andi	r24, 0x7F	; 127
     bde:	0e 94 a9 05 	call	0xb52	; 0xb52 <BCD_to_DEC>
     be2:	f4 01       	movw	r30, r8
     be4:	80 83       	st	Z, r24
     be6:	83 2d       	mov	r24, r3
     be8:	0e 94 a9 05 	call	0xb52	; 0xb52 <BCD_to_DEC>
     bec:	f5 01       	movw	r30, r10
     bee:	80 83       	st	Z, r24
     bf0:	84 2d       	mov	r24, r4
     bf2:	8f 73       	andi	r24, 0x3F	; 63
     bf4:	0e 94 a9 05 	call	0xb52	; 0xb52 <BCD_to_DEC>
     bf8:	f6 01       	movw	r30, r12
     bfa:	80 83       	st	Z, r24
     bfc:	85 2d       	mov	r24, r5
     bfe:	0e 94 a9 05 	call	0xb52	; 0xb52 <BCD_to_DEC>
     c02:	88 83       	st	Y, r24
     c04:	86 2d       	mov	r24, r6
     c06:	8f 71       	andi	r24, 0x1F	; 31
     c08:	0e 94 a9 05 	call	0xb52	; 0xb52 <BCD_to_DEC>
     c0c:	f8 01       	movw	r30, r16
     c0e:	80 83       	st	Z, r24
     c10:	87 2d       	mov	r24, r7
     c12:	0e 94 a9 05 	call	0xb52	; 0xb52 <BCD_to_DEC>
     c16:	f7 01       	movw	r30, r14
     c18:	80 83       	st	Z, r24
     c1a:	df 91       	pop	r29
     c1c:	cf 91       	pop	r28
     c1e:	1f 91       	pop	r17
     c20:	0f 91       	pop	r16
     c22:	ff 90       	pop	r15
     c24:	ef 90       	pop	r14
     c26:	df 90       	pop	r13
     c28:	cf 90       	pop	r12
     c2a:	bf 90       	pop	r11
     c2c:	af 90       	pop	r10
     c2e:	9f 90       	pop	r9
     c30:	8f 90       	pop	r8
     c32:	7f 90       	pop	r7
     c34:	6f 90       	pop	r6
     c36:	5f 90       	pop	r5
     c38:	4f 90       	pop	r4
     c3a:	3f 90       	pop	r3
     c3c:	2f 90       	pop	r2
     c3e:	08 95       	ret

00000c40 <ConvertToAMPM>:


void ConvertToAMPM(uint8_t hour24, uint8_t *hour12, char *ampm)
{
	if (hour24 == 0)
     c40:	81 11       	cpse	r24, r1
     c42:	07 c0       	rjmp	.+14     	; 0xc52 <ConvertToAMPM+0x12>
	{
		*hour12 = 12;
     c44:	8c e0       	ldi	r24, 0x0C	; 12
     c46:	fb 01       	movw	r30, r22
     c48:	80 83       	st	Z, r24
		*ampm = 'A';
     c4a:	81 e4       	ldi	r24, 0x41	; 65
     c4c:	fa 01       	movw	r30, r20
     c4e:	80 83       	st	Z, r24
     c50:	08 95       	ret
	}
	else if (hour24 < 12)
     c52:	8c 30       	cpi	r24, 0x0C	; 12
     c54:	30 f4       	brcc	.+12     	; 0xc62 <ConvertToAMPM+0x22>
	{
		*hour12 = hour24;
     c56:	fb 01       	movw	r30, r22
     c58:	80 83       	st	Z, r24
		*ampm = 'A';
     c5a:	81 e4       	ldi	r24, 0x41	; 65
     c5c:	fa 01       	movw	r30, r20
     c5e:	80 83       	st	Z, r24
     c60:	08 95       	ret
	}
	else if (hour24 == 12)
     c62:	8c 30       	cpi	r24, 0x0C	; 12
     c64:	31 f4       	brne	.+12     	; 0xc72 <ConvertToAMPM+0x32>
	{
		*hour12 = 12;
     c66:	fb 01       	movw	r30, r22
     c68:	80 83       	st	Z, r24
		*ampm = 'P';
     c6a:	80 e5       	ldi	r24, 0x50	; 80
     c6c:	fa 01       	movw	r30, r20
     c6e:	80 83       	st	Z, r24
     c70:	08 95       	ret
	}
	else
	{
		*hour12 = hour24 - 12;
     c72:	8c 50       	subi	r24, 0x0C	; 12
     c74:	fb 01       	movw	r30, r22
     c76:	80 83       	st	Z, r24
		*ampm = 'P';
     c78:	80 e5       	ldi	r24, 0x50	; 80
     c7a:	fa 01       	movw	r30, r20
     c7c:	80 83       	st	Z, r24
     c7e:	08 95       	ret

00000c80 <TWI_Init>:
#include <avr/io.h>
#include <stdint.h>

void TWI_Init(void)
{
	TWSR = 0x00;     // Prescaler = 1
     c80:	10 92 b9 00 	sts	0x00B9, r1	; 0x8000b9 <__TEXT_REGION_LENGTH__+0x7f80b9>
	TWBR = 72;       // 100kHz @16MHz
     c84:	88 e4       	ldi	r24, 0x48	; 72
     c86:	80 93 b8 00 	sts	0x00B8, r24	; 0x8000b8 <__TEXT_REGION_LENGTH__+0x7f80b8>
     c8a:	08 95       	ret

00000c8c <TWI_Start>:
}

void TWI_Start(void)
{
	TWCR = (1 << TWINT) | (1 << TWSTA) | (1 << TWEN);
     c8c:	84 ea       	ldi	r24, 0xA4	; 164
     c8e:	80 93 bc 00 	sts	0x00BC, r24	; 0x8000bc <__TEXT_REGION_LENGTH__+0x7f80bc>
	while (!(TWCR & (1 << TWINT)));
     c92:	80 91 bc 00 	lds	r24, 0x00BC	; 0x8000bc <__TEXT_REGION_LENGTH__+0x7f80bc>
     c96:	88 23       	and	r24, r24
     c98:	e4 f7       	brge	.-8      	; 0xc92 <TWI_Start+0x6>
}
     c9a:	08 95       	ret

00000c9c <TWI_Stop>:

void TWI_Stop(void)
{
	TWCR = (1 << TWINT) | (1 << TWEN) | (1 << TWSTO);
     c9c:	84 e9       	ldi	r24, 0x94	; 148
     c9e:	80 93 bc 00 	sts	0x00BC, r24	; 0x8000bc <__TEXT_REGION_LENGTH__+0x7f80bc>
     ca2:	08 95       	ret

00000ca4 <TWI_Write>:
}

void TWI_Write(uint8_t data)
{
	TWDR = data;
     ca4:	80 93 bb 00 	sts	0x00BB, r24	; 0x8000bb <__TEXT_REGION_LENGTH__+0x7f80bb>
	TWCR = (1 << TWINT) | (1 << TWEN);
     ca8:	84 e8       	ldi	r24, 0x84	; 132
     caa:	80 93 bc 00 	sts	0x00BC, r24	; 0x8000bc <__TEXT_REGION_LENGTH__+0x7f80bc>
	while (!(TWCR & (1 << TWINT)));
     cae:	80 91 bc 00 	lds	r24, 0x00BC	; 0x8000bc <__TEXT_REGION_LENGTH__+0x7f80bc>
     cb2:	88 23       	and	r24, r24
     cb4:	e4 f7       	brge	.-8      	; 0xcae <TWI_Write+0xa>
}
     cb6:	08 95       	ret

00000cb8 <TWI_Read_NACK>:

uint8_t TWI_Read_NACK(void)
{
	TWCR = (1 << TWINT) | (1 << TWEN);
     cb8:	84 e8       	ldi	r24, 0x84	; 132
     cba:	80 93 bc 00 	sts	0x00BC, r24	; 0x8000bc <__TEXT_REGION_LENGTH__+0x7f80bc>
	while (!(TWCR & (1 << TWINT)));
     cbe:	80 91 bc 00 	lds	r24, 0x00BC	; 0x8000bc <__TEXT_REGION_LENGTH__+0x7f80bc>
     cc2:	88 23       	and	r24, r24
     cc4:	e4 f7       	brge	.-8      	; 0xcbe <TWI_Read_NACK+0x6>
	return TWDR;
     cc6:	80 91 bb 00 	lds	r24, 0x00BB	; 0x8000bb <__TEXT_REGION_LENGTH__+0x7f80bb>
}
     cca:	08 95       	ret

00000ccc <TWI_Read_ACK>:

uint8_t TWI_Read_ACK(void)
{
	TWCR = (1 << TWINT) | (1 << TWEN) | (1 << TWEA);
     ccc:	84 ec       	ldi	r24, 0xC4	; 196
     cce:	80 93 bc 00 	sts	0x00BC, r24	; 0x8000bc <__TEXT_REGION_LENGTH__+0x7f80bc>
	while (!(TWCR & (1 << TWINT)));
     cd2:	80 91 bc 00 	lds	r24, 0x00BC	; 0x8000bc <__TEXT_REGION_LENGTH__+0x7f80bc>
     cd6:	88 23       	and	r24, r24
     cd8:	e4 f7       	brge	.-8      	; 0xcd2 <TWI_Read_ACK+0x6>
	return TWDR;
     cda:	80 91 bb 00 	lds	r24, 0x00BB	; 0x8000bb <__TEXT_REGION_LENGTH__+0x7f80bb>
}
     cde:	08 95       	ret

00000ce0 <main>:
#include "print.h"


int main(void)
{	
	TWI_Init();
     ce0:	0e 94 40 06 	call	0xc80	; 0xc80 <TWI_Init>
	SPI_init();
     ce4:	0e 94 ca 08 	call	0x1194	; 0x1194 <SPI_init>
	UART_Init();
     ce8:	0e 94 df 08 	call	0x11be	; 0x11be <UART_Init>
	OLED_Init();
     cec:	0e 94 cc 06 	call	0xd98	; 0xd98 <OLED_Init>
	OLED_Clear();
     cf0:	0e 94 b6 06 	call	0xd6c	; 0xd6c <OLED_Clear>
	/*DS1307_SetDate(25, 01, 26);   */

	
	while (1)
	{
		printTimeDateTempPressure();
     cf4:	0e 94 a2 08 	call	0x1144	; 0x1144 <printTimeDateTempPressure>
     cf8:	fd cf       	rjmp	.-6      	; 0xcf4 <main+0x14>

00000cfa <OLED_Command>:

	// Decimal part
	OLED_PrintChar('.');
	OLED_PrintChar(ones + '0');
	OLED_PrintChar(d2 + '0');
}
     cfa:	cf 93       	push	r28
     cfc:	c8 2f       	mov	r28, r24
     cfe:	0e 94 46 06 	call	0xc8c	; 0xc8c <TWI_Start>
     d02:	88 e7       	ldi	r24, 0x78	; 120
     d04:	0e 94 52 06 	call	0xca4	; 0xca4 <TWI_Write>
     d08:	80 e0       	ldi	r24, 0x00	; 0
     d0a:	0e 94 52 06 	call	0xca4	; 0xca4 <TWI_Write>
     d0e:	8c 2f       	mov	r24, r28
     d10:	0e 94 52 06 	call	0xca4	; 0xca4 <TWI_Write>
     d14:	0e 94 4e 06 	call	0xc9c	; 0xc9c <TWI_Stop>
     d18:	cf 91       	pop	r28
     d1a:	08 95       	ret

00000d1c <OLED_Data>:
     d1c:	cf 93       	push	r28
     d1e:	c8 2f       	mov	r28, r24
     d20:	0e 94 46 06 	call	0xc8c	; 0xc8c <TWI_Start>
     d24:	88 e7       	ldi	r24, 0x78	; 120
     d26:	0e 94 52 06 	call	0xca4	; 0xca4 <TWI_Write>
     d2a:	80 e4       	ldi	r24, 0x40	; 64
     d2c:	0e 94 52 06 	call	0xca4	; 0xca4 <TWI_Write>
     d30:	8c 2f       	mov	r24, r28
     d32:	0e 94 52 06 	call	0xca4	; 0xca4 <TWI_Write>
     d36:	0e 94 4e 06 	call	0xc9c	; 0xc9c <TWI_Stop>
     d3a:	cf 91       	pop	r28
     d3c:	08 95       	ret

00000d3e <OLED_SetCursor>:
     d3e:	cf 93       	push	r28
     d40:	c6 2f       	mov	r28, r22
     d42:	90 91 b6 04 	lds	r25, 0x04B6	; 0x8004b6 <x>
     d46:	90 93 f9 03 	sts	0x03F9, r25	; 0x8003f9 <oled_x>
     d4a:	80 93 f8 03 	sts	0x03F8, r24	; 0x8003f8 <oled_page>
     d4e:	80 55       	subi	r24, 0x50	; 80
     d50:	0e 94 7d 06 	call	0xcfa	; 0xcfa <OLED_Command>
     d54:	8c 2f       	mov	r24, r28
     d56:	8f 70       	andi	r24, 0x0F	; 15
     d58:	0e 94 7d 06 	call	0xcfa	; 0xcfa <OLED_Command>
     d5c:	8c 2f       	mov	r24, r28
     d5e:	82 95       	swap	r24
     d60:	8f 70       	andi	r24, 0x0F	; 15
     d62:	80 5f       	subi	r24, 0xF0	; 240
     d64:	0e 94 7d 06 	call	0xcfa	; 0xcfa <OLED_Command>
     d68:	cf 91       	pop	r28
     d6a:	08 95       	ret

00000d6c <OLED_Clear>:
     d6c:	cf 93       	push	r28
     d6e:	df 93       	push	r29
     d70:	d0 e0       	ldi	r29, 0x00	; 0
     d72:	0d c0       	rjmp	.+26     	; 0xd8e <OLED_Clear+0x22>
     d74:	60 e0       	ldi	r22, 0x00	; 0
     d76:	8d 2f       	mov	r24, r29
     d78:	0e 94 9f 06 	call	0xd3e	; 0xd3e <OLED_SetCursor>
     d7c:	c0 e0       	ldi	r28, 0x00	; 0
     d7e:	04 c0       	rjmp	.+8      	; 0xd88 <OLED_Clear+0x1c>
     d80:	80 e0       	ldi	r24, 0x00	; 0
     d82:	0e 94 8e 06 	call	0xd1c	; 0xd1c <OLED_Data>
     d86:	cf 5f       	subi	r28, 0xFF	; 255
     d88:	cc 23       	and	r28, r28
     d8a:	d4 f7       	brge	.-12     	; 0xd80 <OLED_Clear+0x14>
     d8c:	df 5f       	subi	r29, 0xFF	; 255
     d8e:	d8 30       	cpi	r29, 0x08	; 8
     d90:	88 f3       	brcs	.-30     	; 0xd74 <OLED_Clear+0x8>
     d92:	df 91       	pop	r29
     d94:	cf 91       	pop	r28
     d96:	08 95       	ret

00000d98 <OLED_Init>:
     d98:	2f ef       	ldi	r18, 0xFF	; 255
     d9a:	81 ee       	ldi	r24, 0xE1	; 225
     d9c:	94 e0       	ldi	r25, 0x04	; 4
     d9e:	21 50       	subi	r18, 0x01	; 1
     da0:	80 40       	sbci	r24, 0x00	; 0
     da2:	90 40       	sbci	r25, 0x00	; 0
     da4:	e1 f7       	brne	.-8      	; 0xd9e <OLED_Init+0x6>
     da6:	00 c0       	rjmp	.+0      	; 0xda8 <OLED_Init+0x10>
     da8:	00 00       	nop
     daa:	8e ea       	ldi	r24, 0xAE	; 174
     dac:	0e 94 7d 06 	call	0xcfa	; 0xcfa <OLED_Command>
     db0:	80 e2       	ldi	r24, 0x20	; 32
     db2:	0e 94 7d 06 	call	0xcfa	; 0xcfa <OLED_Command>
     db6:	80 e0       	ldi	r24, 0x00	; 0
     db8:	0e 94 7d 06 	call	0xcfa	; 0xcfa <OLED_Command>
     dbc:	80 eb       	ldi	r24, 0xB0	; 176
     dbe:	0e 94 7d 06 	call	0xcfa	; 0xcfa <OLED_Command>
     dc2:	88 ec       	ldi	r24, 0xC8	; 200
     dc4:	0e 94 7d 06 	call	0xcfa	; 0xcfa <OLED_Command>
     dc8:	80 e0       	ldi	r24, 0x00	; 0
     dca:	0e 94 7d 06 	call	0xcfa	; 0xcfa <OLED_Command>
     dce:	80 e1       	ldi	r24, 0x10	; 16
     dd0:	0e 94 7d 06 	call	0xcfa	; 0xcfa <OLED_Command>
     dd4:	80 e4       	ldi	r24, 0x40	; 64
     dd6:	0e 94 7d 06 	call	0xcfa	; 0xcfa <OLED_Command>
     dda:	81 e8       	ldi	r24, 0x81	; 129
     ddc:	0e 94 7d 06 	call	0xcfa	; 0xcfa <OLED_Command>
     de0:	8f e7       	ldi	r24, 0x7F	; 127
     de2:	0e 94 7d 06 	call	0xcfa	; 0xcfa <OLED_Command>
     de6:	81 ea       	ldi	r24, 0xA1	; 161
     de8:	0e 94 7d 06 	call	0xcfa	; 0xcfa <OLED_Command>
     dec:	86 ea       	ldi	r24, 0xA6	; 166
     dee:	0e 94 7d 06 	call	0xcfa	; 0xcfa <OLED_Command>
     df2:	88 ea       	ldi	r24, 0xA8	; 168
     df4:	0e 94 7d 06 	call	0xcfa	; 0xcfa <OLED_Command>
     df8:	8f e3       	ldi	r24, 0x3F	; 63
     dfa:	0e 94 7d 06 	call	0xcfa	; 0xcfa <OLED_Command>
     dfe:	84 ea       	ldi	r24, 0xA4	; 164
     e00:	0e 94 7d 06 	call	0xcfa	; 0xcfa <OLED_Command>
     e04:	83 ed       	ldi	r24, 0xD3	; 211
     e06:	0e 94 7d 06 	call	0xcfa	; 0xcfa <OLED_Command>
     e0a:	80 e0       	ldi	r24, 0x00	; 0
     e0c:	0e 94 7d 06 	call	0xcfa	; 0xcfa <OLED_Command>
     e10:	85 ed       	ldi	r24, 0xD5	; 213
     e12:	0e 94 7d 06 	call	0xcfa	; 0xcfa <OLED_Command>
     e16:	80 e8       	ldi	r24, 0x80	; 128
     e18:	0e 94 7d 06 	call	0xcfa	; 0xcfa <OLED_Command>
     e1c:	89 ed       	ldi	r24, 0xD9	; 217
     e1e:	0e 94 7d 06 	call	0xcfa	; 0xcfa <OLED_Command>
     e22:	81 ef       	ldi	r24, 0xF1	; 241
     e24:	0e 94 7d 06 	call	0xcfa	; 0xcfa <OLED_Command>
     e28:	8a ed       	ldi	r24, 0xDA	; 218
     e2a:	0e 94 7d 06 	call	0xcfa	; 0xcfa <OLED_Command>
     e2e:	82 e1       	ldi	r24, 0x12	; 18
     e30:	0e 94 7d 06 	call	0xcfa	; 0xcfa <OLED_Command>
     e34:	8b ed       	ldi	r24, 0xDB	; 219
     e36:	0e 94 7d 06 	call	0xcfa	; 0xcfa <OLED_Command>
     e3a:	80 e4       	ldi	r24, 0x40	; 64
     e3c:	0e 94 7d 06 	call	0xcfa	; 0xcfa <OLED_Command>
     e40:	8d e8       	ldi	r24, 0x8D	; 141
     e42:	0e 94 7d 06 	call	0xcfa	; 0xcfa <OLED_Command>
     e46:	84 e1       	ldi	r24, 0x14	; 20
     e48:	0e 94 7d 06 	call	0xcfa	; 0xcfa <OLED_Command>
     e4c:	8f ea       	ldi	r24, 0xAF	; 175
     e4e:	0e 94 7d 06 	call	0xcfa	; 0xcfa <OLED_Command>
     e52:	0e 94 b6 06 	call	0xd6c	; 0xd6c <OLED_Clear>
     e56:	08 95       	ret

00000e58 <OLED_Char>:
     e58:	cf 93       	push	r28
     e5a:	df 93       	push	r29
     e5c:	d0 ee       	ldi	r29, 0xE0	; 224
     e5e:	d8 0f       	add	r29, r24
     e60:	df 35       	cpi	r29, 0x5F	; 95
     e62:	c0 f4       	brcc	.+48     	; 0xe94 <OLED_Char+0x3c>
     e64:	c0 e0       	ldi	r28, 0x00	; 0
     e66:	11 c0       	rjmp	.+34     	; 0xe8a <OLED_Char+0x32>
     e68:	8d 2f       	mov	r24, r29
     e6a:	90 e0       	ldi	r25, 0x00	; 0
     e6c:	fc 01       	movw	r30, r24
     e6e:	ee 0f       	add	r30, r30
     e70:	ff 1f       	adc	r31, r31
     e72:	ee 0f       	add	r30, r30
     e74:	ff 1f       	adc	r31, r31
     e76:	e8 0f       	add	r30, r24
     e78:	f9 1f       	adc	r31, r25
     e7a:	e2 5f       	subi	r30, 0xF2	; 242
     e7c:	fd 4f       	sbci	r31, 0xFD	; 253
     e7e:	ec 0f       	add	r30, r28
     e80:	f1 1d       	adc	r31, r1
     e82:	80 81       	ld	r24, Z
     e84:	0e 94 8e 06 	call	0xd1c	; 0xd1c <OLED_Data>
     e88:	cf 5f       	subi	r28, 0xFF	; 255
     e8a:	c5 30       	cpi	r28, 0x05	; 5
     e8c:	68 f3       	brcs	.-38     	; 0xe68 <OLED_Char+0x10>
     e8e:	80 e0       	ldi	r24, 0x00	; 0
     e90:	0e 94 8e 06 	call	0xd1c	; 0xd1c <OLED_Data>
     e94:	df 91       	pop	r29
     e96:	cf 91       	pop	r28
     e98:	08 95       	ret

00000e9a <OLED_String>:
     e9a:	cf 93       	push	r28
     e9c:	df 93       	push	r29
     e9e:	ec 01       	movw	r28, r24
     ea0:	03 c0       	rjmp	.+6      	; 0xea8 <OLED_String+0xe>
     ea2:	21 96       	adiw	r28, 0x01	; 1
     ea4:	0e 94 2c 07 	call	0xe58	; 0xe58 <OLED_Char>
     ea8:	88 81       	ld	r24, Y
     eaa:	81 11       	cpse	r24, r1
     eac:	fa cf       	rjmp	.-12     	; 0xea2 <OLED_String+0x8>
     eae:	df 91       	pop	r29
     eb0:	cf 91       	pop	r28
     eb2:	08 95       	ret

00000eb4 <OLED_PrintChar>:
     eb4:	cf 93       	push	r28
     eb6:	df 93       	push	r29
     eb8:	d0 ed       	ldi	r29, 0xD0	; 208
     eba:	d8 0f       	add	r29, r24
     ebc:	da 30       	cpi	r29, 0x0A	; 10
     ebe:	58 f0       	brcs	.+22     	; 0xed6 <OLED_PrintChar+0x22>
     ec0:	8a 33       	cpi	r24, 0x3A	; 58
     ec2:	31 f0       	breq	.+12     	; 0xed0 <OLED_PrintChar+0x1c>
     ec4:	8d 32       	cpi	r24, 0x2D	; 45
     ec6:	31 f0       	breq	.+12     	; 0xed4 <OLED_PrintChar+0x20>
     ec8:	8e 32       	cpi	r24, 0x2E	; 46
     eca:	c9 f4       	brne	.+50     	; 0xefe <OLED_PrintChar+0x4a>
     ecc:	dc e0       	ldi	r29, 0x0C	; 12
     ece:	03 c0       	rjmp	.+6      	; 0xed6 <OLED_PrintChar+0x22>
     ed0:	da e0       	ldi	r29, 0x0A	; 10
     ed2:	01 c0       	rjmp	.+2      	; 0xed6 <OLED_PrintChar+0x22>
     ed4:	db e0       	ldi	r29, 0x0B	; 11
     ed6:	c0 e0       	ldi	r28, 0x00	; 0
     ed8:	10 c0       	rjmp	.+32     	; 0xefa <OLED_PrintChar+0x46>
     eda:	ed 2f       	mov	r30, r29
     edc:	f0 e0       	ldi	r31, 0x00	; 0
     ede:	ee 0f       	add	r30, r30
     ee0:	ff 1f       	adc	r31, r31
     ee2:	ee 0f       	add	r30, r30
     ee4:	ff 1f       	adc	r31, r31
     ee6:	ee 0f       	add	r30, r30
     ee8:	ff 1f       	adc	r31, r31
     eea:	ea 55       	subi	r30, 0x5A	; 90
     eec:	fe 4f       	sbci	r31, 0xFE	; 254
     eee:	ec 0f       	add	r30, r28
     ef0:	f1 1d       	adc	r31, r1
     ef2:	80 81       	ld	r24, Z
     ef4:	0e 94 8e 06 	call	0xd1c	; 0xd1c <OLED_Data>
     ef8:	cf 5f       	subi	r28, 0xFF	; 255
     efa:	c8 30       	cpi	r28, 0x08	; 8
     efc:	70 f3       	brcs	.-36     	; 0xeda <OLED_PrintChar+0x26>
     efe:	df 91       	pop	r29
     f00:	cf 91       	pop	r28
     f02:	08 95       	ret

00000f04 <OLED_Print2Digit>:
     f04:	cf 93       	push	r28
     f06:	df 93       	push	r29
     f08:	d8 2f       	mov	r29, r24
     f0a:	cd ec       	ldi	r28, 0xCD	; 205
     f0c:	8c 9f       	mul	r24, r28
     f0e:	c1 2d       	mov	r28, r1
     f10:	11 24       	eor	r1, r1
     f12:	c6 95       	lsr	r28
     f14:	c6 95       	lsr	r28
     f16:	c6 95       	lsr	r28
     f18:	80 e3       	ldi	r24, 0x30	; 48
     f1a:	8c 0f       	add	r24, r28
     f1c:	0e 94 5a 07 	call	0xeb4	; 0xeb4 <OLED_PrintChar>
     f20:	cc 0f       	add	r28, r28
     f22:	8c 2f       	mov	r24, r28
     f24:	88 0f       	add	r24, r24
     f26:	88 0f       	add	r24, r24
     f28:	c8 0f       	add	r28, r24
     f2a:	8d 2f       	mov	r24, r29
     f2c:	8c 1b       	sub	r24, r28
     f2e:	80 5d       	subi	r24, 0xD0	; 208
     f30:	0e 94 5a 07 	call	0xeb4	; 0xeb4 <OLED_PrintChar>
     f34:	df 91       	pop	r29
     f36:	cf 91       	pop	r28
     f38:	08 95       	ret

00000f3a <OLED_PrintTime>:
     f3a:	cf 93       	push	r28
     f3c:	df 93       	push	r29
     f3e:	d6 2f       	mov	r29, r22
     f40:	c4 2f       	mov	r28, r20
     f42:	4d e6       	ldi	r20, 0x6D	; 109
     f44:	54 e0       	ldi	r21, 0x04	; 4
     f46:	65 e0       	ldi	r22, 0x05	; 5
     f48:	74 e0       	ldi	r23, 0x04	; 4
     f4a:	90 e0       	ldi	r25, 0x00	; 0
     f4c:	0e 94 20 06 	call	0xc40	; 0xc40 <ConvertToAMPM>
     f50:	80 91 05 04 	lds	r24, 0x0405	; 0x800405 <hour12>
     f54:	0e 94 82 07 	call	0xf04	; 0xf04 <OLED_Print2Digit>
     f58:	8a e3       	ldi	r24, 0x3A	; 58
     f5a:	0e 94 5a 07 	call	0xeb4	; 0xeb4 <OLED_PrintChar>
     f5e:	8d 2f       	mov	r24, r29
     f60:	0e 94 82 07 	call	0xf04	; 0xf04 <OLED_Print2Digit>
     f64:	8a e3       	ldi	r24, 0x3A	; 58
     f66:	0e 94 5a 07 	call	0xeb4	; 0xeb4 <OLED_PrintChar>
     f6a:	8c 2f       	mov	r24, r28
     f6c:	0e 94 82 07 	call	0xf04	; 0xf04 <OLED_Print2Digit>
     f70:	80 e2       	ldi	r24, 0x20	; 32
     f72:	0e 94 2c 07 	call	0xe58	; 0xe58 <OLED_Char>
     f76:	80 91 6d 04 	lds	r24, 0x046D	; 0x80046d <ampm>
     f7a:	0e 94 2c 07 	call	0xe58	; 0xe58 <OLED_Char>
     f7e:	8d e4       	ldi	r24, 0x4D	; 77
     f80:	0e 94 2c 07 	call	0xe58	; 0xe58 <OLED_Char>
     f84:	df 91       	pop	r29
     f86:	cf 91       	pop	r28
     f88:	08 95       	ret

00000f8a <OLED_PrintDate>:
     f8a:	cf 93       	push	r28
     f8c:	df 93       	push	r29
     f8e:	d6 2f       	mov	r29, r22
     f90:	c4 2f       	mov	r28, r20
     f92:	0e 94 82 07 	call	0xf04	; 0xf04 <OLED_Print2Digit>
     f96:	8d e2       	ldi	r24, 0x2D	; 45
     f98:	0e 94 5a 07 	call	0xeb4	; 0xeb4 <OLED_PrintChar>
     f9c:	8d 2f       	mov	r24, r29
     f9e:	0e 94 82 07 	call	0xf04	; 0xf04 <OLED_Print2Digit>
     fa2:	8d e2       	ldi	r24, 0x2D	; 45
     fa4:	0e 94 5a 07 	call	0xeb4	; 0xeb4 <OLED_PrintChar>
     fa8:	8c 2f       	mov	r24, r28
     faa:	0e 94 82 07 	call	0xf04	; 0xf04 <OLED_Print2Digit>
     fae:	df 91       	pop	r29
     fb0:	cf 91       	pop	r28
     fb2:	08 95       	ret

00000fb4 <OLED_PrintFloat_2Decimal>:

void OLED_PrintFloat_2Decimal(float value)
{
     fb4:	8f 92       	push	r8
     fb6:	9f 92       	push	r9
     fb8:	af 92       	push	r10
     fba:	bf 92       	push	r11
     fbc:	cf 92       	push	r12
     fbe:	df 92       	push	r13
     fc0:	ef 92       	push	r14
     fc2:	ff 92       	push	r15
     fc4:	0f 93       	push	r16
     fc6:	1f 93       	push	r17
     fc8:	cf 93       	push	r28
     fca:	df 93       	push	r29
     fcc:	6b 01       	movw	r12, r22
     fce:	7c 01       	movw	r14, r24
	int int_part;
	int frac_part;

	if (value < 0)
     fd0:	20 e0       	ldi	r18, 0x00	; 0
     fd2:	30 e0       	ldi	r19, 0x00	; 0
     fd4:	a9 01       	movw	r20, r18
     fd6:	0e 94 58 0a 	call	0x14b0	; 0x14b0 <__cmpsf2>
     fda:	88 23       	and	r24, r24
     fdc:	3c f4       	brge	.+14     	; 0xfec <OLED_PrintFloat_2Decimal+0x38>
	{
		OLED_PrintChar('-');
     fde:	8d e2       	ldi	r24, 0x2D	; 45
     fe0:	0e 94 5a 07 	call	0xeb4	; 0xeb4 <OLED_PrintChar>
		value = -value;
     fe4:	f7 fa       	bst	r15, 7
     fe6:	f0 94       	com	r15
     fe8:	f7 f8       	bld	r15, 7
     fea:	f0 94       	com	r15
	}

	int_part  = (int)value;
     fec:	c7 01       	movw	r24, r14
     fee:	b6 01       	movw	r22, r12
     ff0:	0e 94 cf 0a 	call	0x159e	; 0x159e <__fixsfsi>
     ff4:	eb 01       	movw	r28, r22
	frac_part = (int)((value - int_part) * 100 + 0.5f);
     ff6:	07 2e       	mov	r0, r23
     ff8:	00 0c       	add	r0, r0
     ffa:	88 0b       	sbc	r24, r24
     ffc:	99 0b       	sbc	r25, r25
     ffe:	0e 94 07 0b 	call	0x160e	; 0x160e <__floatsisf>
    1002:	9b 01       	movw	r18, r22
    1004:	ac 01       	movw	r20, r24
    1006:	c7 01       	movw	r24, r14
    1008:	b6 01       	movw	r22, r12
    100a:	0e 94 eb 09 	call	0x13d6	; 0x13d6 <__subsf3>
    100e:	20 e0       	ldi	r18, 0x00	; 0
    1010:	30 e0       	ldi	r19, 0x00	; 0
    1012:	48 ec       	ldi	r20, 0xC8	; 200
    1014:	52 e4       	ldi	r21, 0x42	; 66
    1016:	0e 94 b7 0b 	call	0x176e	; 0x176e <__mulsf3>
    101a:	20 e0       	ldi	r18, 0x00	; 0
    101c:	30 e0       	ldi	r19, 0x00	; 0
    101e:	40 e0       	ldi	r20, 0x00	; 0
    1020:	5f e3       	ldi	r21, 0x3F	; 63
    1022:	0e 94 ec 09 	call	0x13d8	; 0x13d8 <__addsf3>
    1026:	0e 94 cf 0a 	call	0x159e	; 0x159e <__fixsfsi>
    102a:	8b 01       	movw	r16, r22

	// Handle rounding overflow (e.g., 99.995 ? 100.00)
	if (frac_part >= 100)
    102c:	64 36       	cpi	r22, 0x64	; 100
    102e:	71 05       	cpc	r23, r1
    1030:	1c f0       	brlt	.+6      	; 0x1038 <OLED_PrintFloat_2Decimal+0x84>
	{
		frac_part = 0;
		int_part++;
    1032:	21 96       	adiw	r28, 0x01	; 1
	frac_part = (int)((value - int_part) * 100 + 0.5f);

	// Handle rounding overflow (e.g., 99.995 ? 100.00)
	if (frac_part >= 100)
	{
		frac_part = 0;
    1034:	00 e0       	ldi	r16, 0x00	; 0
    1036:	10 e0       	ldi	r17, 0x00	; 0
		int_part++;
	}

	/* ---- print integer part ---- */
	if (int_part >= 1000)
    1038:	c8 3e       	cpi	r28, 0xE8	; 232
    103a:	83 e0       	ldi	r24, 0x03	; 3
    103c:	d8 07       	cpc	r29, r24
    103e:	4c f0       	brlt	.+18     	; 0x1052 <OLED_PrintFloat_2Decimal+0x9e>
	OLED_PrintChar((int_part / 1000) + '0');
    1040:	ce 01       	movw	r24, r28
    1042:	68 ee       	ldi	r22, 0xE8	; 232
    1044:	73 e0       	ldi	r23, 0x03	; 3
    1046:	0e 94 24 0c 	call	0x1848	; 0x1848 <__divmodhi4>
    104a:	80 e3       	ldi	r24, 0x30	; 48
    104c:	86 0f       	add	r24, r22
    104e:	0e 94 5a 07 	call	0xeb4	; 0xeb4 <OLED_PrintChar>

	if (int_part >= 100)
    1052:	c4 36       	cpi	r28, 0x64	; 100
    1054:	d1 05       	cpc	r29, r1
    1056:	6c f0       	brlt	.+26     	; 0x1072 <OLED_PrintFloat_2Decimal+0xbe>
	OLED_PrintChar((int_part / 100 % 10) + '0');
    1058:	ce 01       	movw	r24, r28
    105a:	64 e6       	ldi	r22, 0x64	; 100
    105c:	70 e0       	ldi	r23, 0x00	; 0
    105e:	0e 94 24 0c 	call	0x1848	; 0x1848 <__divmodhi4>
    1062:	cb 01       	movw	r24, r22
    1064:	6a e0       	ldi	r22, 0x0A	; 10
    1066:	70 e0       	ldi	r23, 0x00	; 0
    1068:	0e 94 24 0c 	call	0x1848	; 0x1848 <__divmodhi4>
    106c:	80 5d       	subi	r24, 0xD0	; 208
    106e:	0e 94 5a 07 	call	0xeb4	; 0xeb4 <OLED_PrintChar>

	if (int_part >= 10)
    1072:	ca 30       	cpi	r28, 0x0A	; 10
    1074:	d1 05       	cpc	r29, r1
    1076:	6c f0       	brlt	.+26     	; 0x1092 <OLED_PrintFloat_2Decimal+0xde>
	OLED_PrintChar((int_part / 10 % 10) + '0');
    1078:	2a e0       	ldi	r18, 0x0A	; 10
    107a:	30 e0       	ldi	r19, 0x00	; 0
    107c:	ce 01       	movw	r24, r28
    107e:	b9 01       	movw	r22, r18
    1080:	0e 94 24 0c 	call	0x1848	; 0x1848 <__divmodhi4>
    1084:	cb 01       	movw	r24, r22
    1086:	b9 01       	movw	r22, r18
    1088:	0e 94 24 0c 	call	0x1848	; 0x1848 <__divmodhi4>
    108c:	80 5d       	subi	r24, 0xD0	; 208
    108e:	0e 94 5a 07 	call	0xeb4	; 0xeb4 <OLED_PrintChar>

	OLED_PrintChar((int_part % 10) + '0');
    1092:	0f 2e       	mov	r0, r31
    1094:	fa e0       	ldi	r31, 0x0A	; 10
    1096:	ef 2e       	mov	r14, r31
    1098:	f1 2c       	mov	r15, r1
    109a:	f0 2d       	mov	r31, r0
    109c:	ce 01       	movw	r24, r28
    109e:	b7 01       	movw	r22, r14
    10a0:	0e 94 24 0c 	call	0x1848	; 0x1848 <__divmodhi4>
    10a4:	80 5d       	subi	r24, 0xD0	; 208
    10a6:	0e 94 5a 07 	call	0xeb4	; 0xeb4 <OLED_PrintChar>

	/* ---- decimal part ---- */
	OLED_PrintChar('.');
    10aa:	8e e2       	ldi	r24, 0x2E	; 46
    10ac:	0e 94 5a 07 	call	0xeb4	; 0xeb4 <OLED_PrintChar>
	OLED_PrintChar((frac_part / 10) + '0');
    10b0:	c8 01       	movw	r24, r16
    10b2:	b7 01       	movw	r22, r14
    10b4:	0e 94 24 0c 	call	0x1848	; 0x1848 <__divmodhi4>
    10b8:	c8 2f       	mov	r28, r24
    10ba:	80 e3       	ldi	r24, 0x30	; 48
    10bc:	86 0f       	add	r24, r22
    10be:	0e 94 5a 07 	call	0xeb4	; 0xeb4 <OLED_PrintChar>
	OLED_PrintChar((frac_part % 10) + '0');
    10c2:	80 e3       	ldi	r24, 0x30	; 48
    10c4:	8c 0f       	add	r24, r28
    10c6:	0e 94 5a 07 	call	0xeb4	; 0xeb4 <OLED_PrintChar>
}
    10ca:	df 91       	pop	r29
    10cc:	cf 91       	pop	r28
    10ce:	1f 91       	pop	r17
    10d0:	0f 91       	pop	r16
    10d2:	ff 90       	pop	r15
    10d4:	ef 90       	pop	r14
    10d6:	df 90       	pop	r13
    10d8:	cf 90       	pop	r12
    10da:	bf 90       	pop	r11
    10dc:	af 90       	pop	r10
    10de:	9f 90       	pop	r9
    10e0:	8f 90       	pop	r8
    10e2:	08 95       	ret

000010e4 <OLED_printTime>:

// printing 
void OLED_printTime(void)
{
		// OLED printing
			OLED_SetCursor(1, 22);
    10e4:	66 e1       	ldi	r22, 0x16	; 22
    10e6:	81 e0       	ldi	r24, 0x01	; 1
    10e8:	0e 94 9f 06 	call	0xd3e	; 0xd3e <OLED_SetCursor>
			OLED_PrintTime(hh, mm, ss); // SSD1306, address: 0x3c
    10ec:	40 91 10 04 	lds	r20, 0x0410	; 0x800410 <ss>
    10f0:	60 91 00 04 	lds	r22, 0x0400	; 0x800400 <mm>
    10f4:	80 91 81 04 	lds	r24, 0x0481	; 0x800481 <hh>
    10f8:	0e 94 9d 07 	call	0xf3a	; 0xf3a <OLED_PrintTime>
    10fc:	08 95       	ret

000010fe <OLED_printDate>:


void OLED_printDate(void)
{
	// date printing
	OLED_SetCursor(3, 26);
    10fe:	6a e1       	ldi	r22, 0x1A	; 26
    1100:	83 e0       	ldi	r24, 0x03	; 3
    1102:	0e 94 9f 06 	call	0xd3e	; 0xd3e <OLED_SetCursor>
	OLED_PrintDate(dd, mon, yy);
    1106:	40 91 76 04 	lds	r20, 0x0476	; 0x800476 <yy>
    110a:	60 91 37 04 	lds	r22, 0x0437	; 0x800437 <mon>
    110e:	80 91 5a 04 	lds	r24, 0x045A	; 0x80045a <dd>
    1112:	0e 94 c5 07 	call	0xf8a	; 0xf8a <OLED_PrintDate>
    1116:	08 95       	ret

00001118 <printTimeDate>:
#include "bmp280.h"
#include "global.h"

void printTimeDate(void)
{
			UART_printTime();
    1118:	0e 94 b9 09 	call	0x1372	; 0x1372 <UART_printTime>
			UART_printDate();
    111c:	0e 94 d2 09 	call	0x13a4	; 0x13a4 <UART_printDate>
			
			OLED_printTime();
    1120:	0e 94 72 08 	call	0x10e4	; 0x10e4 <OLED_printTime>
			OLED_printDate();
    1124:	0e 94 7f 08 	call	0x10fe	; 0x10fe <OLED_printDate>
    1128:	08 95       	ret

0000112a <printTemperature>:
}

void printTemperature(void)
{
			// bmp 280
			ctrl_meas();
    112a:	0e 94 fc 00 	call	0x1f8	; 0x1f8 <ctrl_meas>
			getRawTemp();
    112e:	0e 94 aa 00 	call	0x154	; 0x154 <getRawTemp>
			realTemp();
    1132:	0e 94 20 01 	call	0x240	; 0x240 <realTemp>
			
			readCalib();
    1136:	0e 94 82 02 	call	0x504	; 0x504 <readCalib>
			getRawPressure();
    113a:	0e 94 f8 01 	call	0x3f0	; 0x3f0 <getRawPressure>
			realPressure();
    113e:	0e 94 1e 04 	call	0x83c	; 0x83c <realPressure>
    1142:	08 95       	ret

00001144 <printTimeDateTempPressure>:
}


	void printTimeDateTempPressure(void)
	{
    1144:	ef 92       	push	r14
    1146:	ff 92       	push	r15
    1148:	0f 93       	push	r16
    114a:	1f 93       	push	r17
		DS1307_ReadTimeDate(&hh, &mm, &ss, &dd, &mon, &yy);
    114c:	0f 2e       	mov	r0, r31
    114e:	f6 e7       	ldi	r31, 0x76	; 118
    1150:	ef 2e       	mov	r14, r31
    1152:	f4 e0       	ldi	r31, 0x04	; 4
    1154:	ff 2e       	mov	r15, r31
    1156:	f0 2d       	mov	r31, r0
    1158:	07 e3       	ldi	r16, 0x37	; 55
    115a:	14 e0       	ldi	r17, 0x04	; 4
    115c:	2a e5       	ldi	r18, 0x5A	; 90
    115e:	34 e0       	ldi	r19, 0x04	; 4
    1160:	40 e1       	ldi	r20, 0x10	; 16
    1162:	54 e0       	ldi	r21, 0x04	; 4
    1164:	60 e0       	ldi	r22, 0x00	; 0
    1166:	74 e0       	ldi	r23, 0x04	; 4
    1168:	81 e8       	ldi	r24, 0x81	; 129
    116a:	94 e0       	ldi	r25, 0x04	; 4
    116c:	0e 94 b4 05 	call	0xb68	; 0xb68 <DS1307_ReadTimeDate>
		printTimeDate();
    1170:	0e 94 8c 08 	call	0x1118	; 0x1118 <printTimeDate>
		printTemperature();
    1174:	0e 94 95 08 	call	0x112a	; 0x112a <printTemperature>
	#else
		//round up by default
		__ticks_dc = (uint32_t)(ceil(fabs(__tmp)));
	#endif

	__builtin_avr_delay_cycles(__ticks_dc);
    1178:	2f e3       	ldi	r18, 0x3F	; 63
    117a:	8d e0       	ldi	r24, 0x0D	; 13
    117c:	93 e0       	ldi	r25, 0x03	; 3
    117e:	21 50       	subi	r18, 0x01	; 1
    1180:	80 40       	sbci	r24, 0x00	; 0
    1182:	90 40       	sbci	r25, 0x00	; 0
    1184:	e1 f7       	brne	.-8      	; 0x117e <printTimeDateTempPressure+0x3a>
    1186:	00 c0       	rjmp	.+0      	; 0x1188 <printTimeDateTempPressure+0x44>
    1188:	00 00       	nop
		_delay_ms(1000);
    118a:	1f 91       	pop	r17
    118c:	0f 91       	pop	r16
    118e:	ff 90       	pop	r15
    1190:	ef 90       	pop	r14
    1192:	08 95       	ret

00001194 <SPI_init>:
 #include <avr/io.h>
 #include <util/delay.h>

 void SPI_init(void)
 {
 DDRB |= (1 << PB3) | (1 << PB5) | (1 << PB2); // MOSI, SCK, SS as outputs
    1194:	84 b1       	in	r24, 0x04	; 4
    1196:	8c 62       	ori	r24, 0x2C	; 44
    1198:	84 b9       	out	0x04, r24	; 4
 DDRB &= ~(1 << PB4);                           // MISO as input
    119a:	84 b1       	in	r24, 0x04	; 4
    119c:	8f 7e       	andi	r24, 0xEF	; 239
    119e:	84 b9       	out	0x04, r24	; 4
 PORTB |= (1 << PB2);                           // SS high initially
    11a0:	85 b1       	in	r24, 0x05	; 5
    11a2:	84 60       	ori	r24, 0x04	; 4
    11a4:	85 b9       	out	0x05, r24	; 5
 DDRD|=(1<<PD3);
    11a6:	8a b1       	in	r24, 0x0a	; 10
    11a8:	88 60       	ori	r24, 0x08	; 8
    11aa:	8a b9       	out	0x0a, r24	; 10
 // ===== SPI SETUP =====
 SPCR = (1 << SPE) | (1 << MSTR) | (1 << SPR0); // Enable SPI Master
    11ac:	81 e5       	ldi	r24, 0x51	; 81
    11ae:	8c bd       	out	0x2c, r24	; 44
    11b0:	8f e3       	ldi	r24, 0x3F	; 63
    11b2:	9c e9       	ldi	r25, 0x9C	; 156
    11b4:	01 97       	sbiw	r24, 0x01	; 1
    11b6:	f1 f7       	brne	.-4      	; 0x11b4 <SPI_init+0x20>
    11b8:	00 c0       	rjmp	.+0      	; 0x11ba <SPI_init+0x26>
    11ba:	00 00       	nop
    11bc:	08 95       	ret

000011be <UART_Init>:

void UART_Init(void)
{
	uint16_t ubrr = 103;   // 9600 baud @16MHz

	UBRR0H = (ubrr >> 8);
    11be:	10 92 c5 00 	sts	0x00C5, r1	; 0x8000c5 <__TEXT_REGION_LENGTH__+0x7f80c5>
	UBRR0L = ubrr;
    11c2:	87 e6       	ldi	r24, 0x67	; 103
    11c4:	80 93 c4 00 	sts	0x00C4, r24	; 0x8000c4 <__TEXT_REGION_LENGTH__+0x7f80c4>

	UCSR0B = (1 << TXEN0);                       // Enable TX
    11c8:	88 e0       	ldi	r24, 0x08	; 8
    11ca:	80 93 c1 00 	sts	0x00C1, r24	; 0x8000c1 <__TEXT_REGION_LENGTH__+0x7f80c1>
	UCSR0C = (1 << UCSZ01) | (1 << UCSZ00);      // 8-bit data
    11ce:	86 e0       	ldi	r24, 0x06	; 6
    11d0:	80 93 c2 00 	sts	0x00C2, r24	; 0x8000c2 <__TEXT_REGION_LENGTH__+0x7f80c2>
    11d4:	08 95       	ret

000011d6 <UART_TxChar>:
}

void UART_TxChar(char c)
{
	while (!(UCSR0A & (1 << UDRE0)));
    11d6:	90 91 c0 00 	lds	r25, 0x00C0	; 0x8000c0 <__TEXT_REGION_LENGTH__+0x7f80c0>
    11da:	95 ff       	sbrs	r25, 5
    11dc:	fc cf       	rjmp	.-8      	; 0x11d6 <UART_TxChar>
	UDR0 = c;
    11de:	80 93 c6 00 	sts	0x00C6, r24	; 0x8000c6 <__TEXT_REGION_LENGTH__+0x7f80c6>
    11e2:	08 95       	ret

000011e4 <UART_TxString>:
}

void UART_TxString(const char *s)
{
    11e4:	cf 93       	push	r28
    11e6:	df 93       	push	r29
    11e8:	ec 01       	movw	r28, r24
	while (*s)
    11ea:	03 c0       	rjmp	.+6      	; 0x11f2 <UART_TxString+0xe>
	{
		UART_TxChar(*s++);
    11ec:	21 96       	adiw	r28, 0x01	; 1
    11ee:	0e 94 eb 08 	call	0x11d6	; 0x11d6 <UART_TxChar>
	UDR0 = c;
}

void UART_TxString(const char *s)
{
	while (*s)
    11f2:	88 81       	ld	r24, Y
    11f4:	81 11       	cpse	r24, r1
    11f6:	fa cf       	rjmp	.-12     	; 0x11ec <UART_TxString+0x8>
	{
		UART_TxChar(*s++);
	}
}
    11f8:	df 91       	pop	r29
    11fa:	cf 91       	pop	r28
    11fc:	08 95       	ret

000011fe <UART_TxNumber>:

void UART_TxNumber(uint8_t num)
{
    11fe:	cf 93       	push	r28
    1200:	df 93       	push	r29
    1202:	d8 2f       	mov	r29, r24
	UART_TxChar((num / 10) + '0');
    1204:	cd ec       	ldi	r28, 0xCD	; 205
    1206:	8c 9f       	mul	r24, r28
    1208:	c1 2d       	mov	r28, r1
    120a:	11 24       	eor	r1, r1
    120c:	c6 95       	lsr	r28
    120e:	c6 95       	lsr	r28
    1210:	c6 95       	lsr	r28
    1212:	80 e3       	ldi	r24, 0x30	; 48
    1214:	8c 0f       	add	r24, r28
    1216:	0e 94 eb 08 	call	0x11d6	; 0x11d6 <UART_TxChar>
	UART_TxChar((num % 10) + '0');
    121a:	cc 0f       	add	r28, r28
    121c:	8c 2f       	mov	r24, r28
    121e:	88 0f       	add	r24, r24
    1220:	88 0f       	add	r24, r24
    1222:	c8 0f       	add	r28, r24
    1224:	8d 2f       	mov	r24, r29
    1226:	8c 1b       	sub	r24, r28
    1228:	80 5d       	subi	r24, 0xD0	; 208
    122a:	0e 94 eb 08 	call	0x11d6	; 0x11d6 <UART_TxChar>
}
    122e:	df 91       	pop	r29
    1230:	cf 91       	pop	r28
    1232:	08 95       	ret

00001234 <UART_TxFloat>:

void UART_TxFloat(float value, uint8_t decimalPlaces)
{
    1234:	4f 92       	push	r4
    1236:	5f 92       	push	r5
    1238:	6f 92       	push	r6
    123a:	7f 92       	push	r7
    123c:	8f 92       	push	r8
    123e:	9f 92       	push	r9
    1240:	af 92       	push	r10
    1242:	bf 92       	push	r11
    1244:	cf 92       	push	r12
    1246:	df 92       	push	r13
    1248:	ef 92       	push	r14
    124a:	ff 92       	push	r15
    124c:	0f 93       	push	r16
    124e:	1f 93       	push	r17
    1250:	cf 93       	push	r28
    1252:	df 93       	push	r29
    1254:	4b 01       	movw	r8, r22
    1256:	5c 01       	movw	r10, r24
    1258:	04 2f       	mov	r16, r20
	int intPart;
	int fracInt;
	float scale = 1.0f;

	// handle sign
	if (value < 0)
    125a:	20 e0       	ldi	r18, 0x00	; 0
    125c:	30 e0       	ldi	r19, 0x00	; 0
    125e:	a9 01       	movw	r20, r18
    1260:	0e 94 58 0a 	call	0x14b0	; 0x14b0 <__cmpsf2>
    1264:	88 23       	and	r24, r24
    1266:	3c f4       	brge	.+14     	; 0x1276 <UART_TxFloat+0x42>
	{
		UART_TxChar('-');
    1268:	8d e2       	ldi	r24, 0x2D	; 45
    126a:	0e 94 eb 08 	call	0x11d6	; 0x11d6 <UART_TxChar>
		value = -value;
    126e:	b7 fa       	bst	r11, 7
    1270:	b0 94       	com	r11
    1272:	b7 f8       	bld	r11, 7
    1274:	b0 94       	com	r11
	}

	// scale for decimals
	for (uint8_t i = 0; i < decimalPlaces; i++)
    1276:	c0 e0       	ldi	r28, 0x00	; 0

void UART_TxFloat(float value, uint8_t decimalPlaces)
{
	int intPart;
	int fracInt;
	float scale = 1.0f;
    1278:	0f 2e       	mov	r0, r31
    127a:	c1 2c       	mov	r12, r1
    127c:	d1 2c       	mov	r13, r1
    127e:	f0 e8       	ldi	r31, 0x80	; 128
    1280:	ef 2e       	mov	r14, r31
    1282:	ff e3       	ldi	r31, 0x3F	; 63
    1284:	ff 2e       	mov	r15, r31
    1286:	f0 2d       	mov	r31, r0
		UART_TxChar('-');
		value = -value;
	}

	// scale for decimals
	for (uint8_t i = 0; i < decimalPlaces; i++)
    1288:	0b c0       	rjmp	.+22     	; 0x12a0 <UART_TxFloat+0x6c>
	scale *= 10.0f;
    128a:	20 e0       	ldi	r18, 0x00	; 0
    128c:	30 e0       	ldi	r19, 0x00	; 0
    128e:	40 e2       	ldi	r20, 0x20	; 32
    1290:	51 e4       	ldi	r21, 0x41	; 65
    1292:	c7 01       	movw	r24, r14
    1294:	b6 01       	movw	r22, r12
    1296:	0e 94 b7 0b 	call	0x176e	; 0x176e <__mulsf3>
    129a:	6b 01       	movw	r12, r22
    129c:	7c 01       	movw	r14, r24
		UART_TxChar('-');
		value = -value;
	}

	// scale for decimals
	for (uint8_t i = 0; i < decimalPlaces; i++)
    129e:	cf 5f       	subi	r28, 0xFF	; 255
    12a0:	c0 17       	cp	r28, r16
    12a2:	98 f3       	brcs	.-26     	; 0x128a <UART_TxFloat+0x56>
	scale *= 10.0f;

	// rounding
	value += 0.5f / scale;
    12a4:	a7 01       	movw	r20, r14
    12a6:	96 01       	movw	r18, r12
    12a8:	60 e0       	ldi	r22, 0x00	; 0
    12aa:	70 e0       	ldi	r23, 0x00	; 0
    12ac:	80 e0       	ldi	r24, 0x00	; 0
    12ae:	9f e3       	ldi	r25, 0x3F	; 63
    12b0:	0e 94 5d 0a 	call	0x14ba	; 0x14ba <__divsf3>
    12b4:	9b 01       	movw	r18, r22
    12b6:	ac 01       	movw	r20, r24
    12b8:	c5 01       	movw	r24, r10
    12ba:	b4 01       	movw	r22, r8
    12bc:	0e 94 ec 09 	call	0x13d8	; 0x13d8 <__addsf3>
    12c0:	2b 01       	movw	r4, r22
    12c2:	3c 01       	movw	r6, r24

	intPart = (int)value;
    12c4:	0e 94 cf 0a 	call	0x159e	; 0x159e <__fixsfsi>
    12c8:	4b 01       	movw	r8, r22
    12ca:	5c 01       	movw	r10, r24
	fracInt = (int)((value - intPart) * scale);
    12cc:	07 2e       	mov	r0, r23
    12ce:	00 0c       	add	r0, r0
    12d0:	88 0b       	sbc	r24, r24
    12d2:	99 0b       	sbc	r25, r25
    12d4:	0e 94 07 0b 	call	0x160e	; 0x160e <__floatsisf>
    12d8:	9b 01       	movw	r18, r22
    12da:	ac 01       	movw	r20, r24
    12dc:	c3 01       	movw	r24, r6
    12de:	b2 01       	movw	r22, r4
    12e0:	0e 94 eb 09 	call	0x13d6	; 0x13d6 <__subsf3>
    12e4:	9b 01       	movw	r18, r22
    12e6:	ac 01       	movw	r20, r24
    12e8:	c7 01       	movw	r24, r14
    12ea:	b6 01       	movw	r22, r12
    12ec:	0e 94 b7 0b 	call	0x176e	; 0x176e <__mulsf3>
    12f0:	0e 94 cf 0a 	call	0x159e	; 0x159e <__fixsfsi>
    12f4:	eb 01       	movw	r28, r22

	// print integer part
	UART_TxNumber(intPart);
    12f6:	88 2d       	mov	r24, r8
    12f8:	0e 94 ff 08 	call	0x11fe	; 0x11fe <UART_TxNumber>
	UART_TxChar('.');
    12fc:	8e e2       	ldi	r24, 0x2E	; 46
    12fe:	0e 94 eb 08 	call	0x11d6	; 0x11d6 <UART_TxChar>

	// print fractional part with leading zeros
	for (int i = decimalPlaces - 1; i >= 0; i--)
    1302:	10 e0       	ldi	r17, 0x00	; 0
    1304:	01 50       	subi	r16, 0x01	; 1
    1306:	11 09       	sbc	r17, r1
    1308:	21 c0       	rjmp	.+66     	; 0x134c <UART_TxFloat+0x118>
	{
		int divisor = 1;
		for (int j = 0; j < i; j++)
		divisor *= 10;
    130a:	9b 01       	movw	r18, r22
    130c:	22 0f       	add	r18, r18
    130e:	33 1f       	adc	r19, r19
    1310:	66 0f       	add	r22, r22
    1312:	77 1f       	adc	r23, r23
    1314:	66 0f       	add	r22, r22
    1316:	77 1f       	adc	r23, r23
    1318:	66 0f       	add	r22, r22
    131a:	77 1f       	adc	r23, r23
    131c:	62 0f       	add	r22, r18
    131e:	73 1f       	adc	r23, r19

	// print fractional part with leading zeros
	for (int i = decimalPlaces - 1; i >= 0; i--)
	{
		int divisor = 1;
		for (int j = 0; j < i; j++)
    1320:	01 96       	adiw	r24, 0x01	; 1
    1322:	04 c0       	rjmp	.+8      	; 0x132c <UART_TxFloat+0xf8>
    1324:	80 e0       	ldi	r24, 0x00	; 0
    1326:	90 e0       	ldi	r25, 0x00	; 0
    1328:	61 e0       	ldi	r22, 0x01	; 1
    132a:	70 e0       	ldi	r23, 0x00	; 0
    132c:	80 17       	cp	r24, r16
    132e:	91 07       	cpc	r25, r17
    1330:	64 f3       	brlt	.-40     	; 0x130a <UART_TxFloat+0xd6>
		divisor *= 10;

		UART_TxChar((fracInt / divisor) % 10 + '0');
    1332:	ce 01       	movw	r24, r28
    1334:	0e 94 24 0c 	call	0x1848	; 0x1848 <__divmodhi4>
    1338:	cb 01       	movw	r24, r22
    133a:	6a e0       	ldi	r22, 0x0A	; 10
    133c:	70 e0       	ldi	r23, 0x00	; 0
    133e:	0e 94 24 0c 	call	0x1848	; 0x1848 <__divmodhi4>
    1342:	80 5d       	subi	r24, 0xD0	; 208
    1344:	0e 94 eb 08 	call	0x11d6	; 0x11d6 <UART_TxChar>
	// print integer part
	UART_TxNumber(intPart);
	UART_TxChar('.');

	// print fractional part with leading zeros
	for (int i = decimalPlaces - 1; i >= 0; i--)
    1348:	01 50       	subi	r16, 0x01	; 1
    134a:	11 09       	sbc	r17, r1
    134c:	11 23       	and	r17, r17
    134e:	54 f7       	brge	.-44     	; 0x1324 <UART_TxFloat+0xf0>
		for (int j = 0; j < i; j++)
		divisor *= 10;

		UART_TxChar((fracInt / divisor) % 10 + '0');
	}
}
    1350:	df 91       	pop	r29
    1352:	cf 91       	pop	r28
    1354:	1f 91       	pop	r17
    1356:	0f 91       	pop	r16
    1358:	ff 90       	pop	r15
    135a:	ef 90       	pop	r14
    135c:	df 90       	pop	r13
    135e:	cf 90       	pop	r12
    1360:	bf 90       	pop	r11
    1362:	af 90       	pop	r10
    1364:	9f 90       	pop	r9
    1366:	8f 90       	pop	r8
    1368:	7f 90       	pop	r7
    136a:	6f 90       	pop	r6
    136c:	5f 90       	pop	r5
    136e:	4f 90       	pop	r4
    1370:	08 95       	ret

00001372 <UART_printTime>:


void UART_printTime(void)
{
			UART_TxNumber(hh);
    1372:	80 91 81 04 	lds	r24, 0x0481	; 0x800481 <hh>
    1376:	0e 94 ff 08 	call	0x11fe	; 0x11fe <UART_TxNumber>
			UART_TxString(":");
    137a:	8e ee       	ldi	r24, 0xEE	; 238
    137c:	93 e0       	ldi	r25, 0x03	; 3
    137e:	0e 94 f2 08 	call	0x11e4	; 0x11e4 <UART_TxString>
			UART_TxNumber(mm);
    1382:	80 91 00 04 	lds	r24, 0x0400	; 0x800400 <mm>
    1386:	0e 94 ff 08 	call	0x11fe	; 0x11fe <UART_TxNumber>
			UART_TxString(":");
    138a:	8e ee       	ldi	r24, 0xEE	; 238
    138c:	93 e0       	ldi	r25, 0x03	; 3
    138e:	0e 94 f2 08 	call	0x11e4	; 0x11e4 <UART_TxString>
			UART_TxNumber(ss);
    1392:	80 91 10 04 	lds	r24, 0x0410	; 0x800410 <ss>
    1396:	0e 94 ff 08 	call	0x11fe	; 0x11fe <UART_TxNumber>
			UART_TxString("\r\n");
    139a:	86 e5       	ldi	r24, 0x56	; 86
    139c:	91 e0       	ldi	r25, 0x01	; 1
    139e:	0e 94 f2 08 	call	0x11e4	; 0x11e4 <UART_TxString>
    13a2:	08 95       	ret

000013a4 <UART_printDate>:
}


void UART_printDate(void)
{
			UART_TxNumber(dd);
    13a4:	80 91 5a 04 	lds	r24, 0x045A	; 0x80045a <dd>
    13a8:	0e 94 ff 08 	call	0x11fe	; 0x11fe <UART_TxNumber>
			UART_TxString(":");
    13ac:	8e ee       	ldi	r24, 0xEE	; 238
    13ae:	93 e0       	ldi	r25, 0x03	; 3
    13b0:	0e 94 f2 08 	call	0x11e4	; 0x11e4 <UART_TxString>
			UART_TxNumber(mon);
    13b4:	80 91 37 04 	lds	r24, 0x0437	; 0x800437 <mon>
    13b8:	0e 94 ff 08 	call	0x11fe	; 0x11fe <UART_TxNumber>
			UART_TxString(":");
    13bc:	8e ee       	ldi	r24, 0xEE	; 238
    13be:	93 e0       	ldi	r25, 0x03	; 3
    13c0:	0e 94 f2 08 	call	0x11e4	; 0x11e4 <UART_TxString>
			UART_TxNumber(yy);
    13c4:	80 91 76 04 	lds	r24, 0x0476	; 0x800476 <yy>
    13c8:	0e 94 ff 08 	call	0x11fe	; 0x11fe <UART_TxNumber>
			UART_TxString("\r\n");
    13cc:	86 e5       	ldi	r24, 0x56	; 86
    13ce:	91 e0       	ldi	r25, 0x01	; 1
    13d0:	0e 94 f2 08 	call	0x11e4	; 0x11e4 <UART_TxString>
    13d4:	08 95       	ret

000013d6 <__subsf3>:
    13d6:	50 58       	subi	r21, 0x80	; 128

000013d8 <__addsf3>:
    13d8:	bb 27       	eor	r27, r27
    13da:	aa 27       	eor	r26, r26
    13dc:	0e 94 03 0a 	call	0x1406	; 0x1406 <__addsf3x>
    13e0:	0c 94 7d 0b 	jmp	0x16fa	; 0x16fa <__fp_round>
    13e4:	0e 94 6f 0b 	call	0x16de	; 0x16de <__fp_pscA>
    13e8:	38 f0       	brcs	.+14     	; 0x13f8 <__addsf3+0x20>
    13ea:	0e 94 76 0b 	call	0x16ec	; 0x16ec <__fp_pscB>
    13ee:	20 f0       	brcs	.+8      	; 0x13f8 <__addsf3+0x20>
    13f0:	39 f4       	brne	.+14     	; 0x1400 <__addsf3+0x28>
    13f2:	9f 3f       	cpi	r25, 0xFF	; 255
    13f4:	19 f4       	brne	.+6      	; 0x13fc <__addsf3+0x24>
    13f6:	26 f4       	brtc	.+8      	; 0x1400 <__addsf3+0x28>
    13f8:	0c 94 6c 0b 	jmp	0x16d8	; 0x16d8 <__fp_nan>
    13fc:	0e f4       	brtc	.+2      	; 0x1400 <__addsf3+0x28>
    13fe:	e0 95       	com	r30
    1400:	e7 fb       	bst	r30, 7
    1402:	0c 94 66 0b 	jmp	0x16cc	; 0x16cc <__fp_inf>

00001406 <__addsf3x>:
    1406:	e9 2f       	mov	r30, r25
    1408:	0e 94 8e 0b 	call	0x171c	; 0x171c <__fp_split3>
    140c:	58 f3       	brcs	.-42     	; 0x13e4 <__addsf3+0xc>
    140e:	ba 17       	cp	r27, r26
    1410:	62 07       	cpc	r22, r18
    1412:	73 07       	cpc	r23, r19
    1414:	84 07       	cpc	r24, r20
    1416:	95 07       	cpc	r25, r21
    1418:	20 f0       	brcs	.+8      	; 0x1422 <__addsf3x+0x1c>
    141a:	79 f4       	brne	.+30     	; 0x143a <__addsf3x+0x34>
    141c:	a6 f5       	brtc	.+104    	; 0x1486 <__addsf3x+0x80>
    141e:	0c 94 b0 0b 	jmp	0x1760	; 0x1760 <__fp_zero>
    1422:	0e f4       	brtc	.+2      	; 0x1426 <__addsf3x+0x20>
    1424:	e0 95       	com	r30
    1426:	0b 2e       	mov	r0, r27
    1428:	ba 2f       	mov	r27, r26
    142a:	a0 2d       	mov	r26, r0
    142c:	0b 01       	movw	r0, r22
    142e:	b9 01       	movw	r22, r18
    1430:	90 01       	movw	r18, r0
    1432:	0c 01       	movw	r0, r24
    1434:	ca 01       	movw	r24, r20
    1436:	a0 01       	movw	r20, r0
    1438:	11 24       	eor	r1, r1
    143a:	ff 27       	eor	r31, r31
    143c:	59 1b       	sub	r21, r25
    143e:	99 f0       	breq	.+38     	; 0x1466 <__addsf3x+0x60>
    1440:	59 3f       	cpi	r21, 0xF9	; 249
    1442:	50 f4       	brcc	.+20     	; 0x1458 <__addsf3x+0x52>
    1444:	50 3e       	cpi	r21, 0xE0	; 224
    1446:	68 f1       	brcs	.+90     	; 0x14a2 <__addsf3x+0x9c>
    1448:	1a 16       	cp	r1, r26
    144a:	f0 40       	sbci	r31, 0x00	; 0
    144c:	a2 2f       	mov	r26, r18
    144e:	23 2f       	mov	r18, r19
    1450:	34 2f       	mov	r19, r20
    1452:	44 27       	eor	r20, r20
    1454:	58 5f       	subi	r21, 0xF8	; 248
    1456:	f3 cf       	rjmp	.-26     	; 0x143e <__addsf3x+0x38>
    1458:	46 95       	lsr	r20
    145a:	37 95       	ror	r19
    145c:	27 95       	ror	r18
    145e:	a7 95       	ror	r26
    1460:	f0 40       	sbci	r31, 0x00	; 0
    1462:	53 95       	inc	r21
    1464:	c9 f7       	brne	.-14     	; 0x1458 <__addsf3x+0x52>
    1466:	7e f4       	brtc	.+30     	; 0x1486 <__addsf3x+0x80>
    1468:	1f 16       	cp	r1, r31
    146a:	ba 0b       	sbc	r27, r26
    146c:	62 0b       	sbc	r22, r18
    146e:	73 0b       	sbc	r23, r19
    1470:	84 0b       	sbc	r24, r20
    1472:	ba f0       	brmi	.+46     	; 0x14a2 <__addsf3x+0x9c>
    1474:	91 50       	subi	r25, 0x01	; 1
    1476:	a1 f0       	breq	.+40     	; 0x14a0 <__addsf3x+0x9a>
    1478:	ff 0f       	add	r31, r31
    147a:	bb 1f       	adc	r27, r27
    147c:	66 1f       	adc	r22, r22
    147e:	77 1f       	adc	r23, r23
    1480:	88 1f       	adc	r24, r24
    1482:	c2 f7       	brpl	.-16     	; 0x1474 <__addsf3x+0x6e>
    1484:	0e c0       	rjmp	.+28     	; 0x14a2 <__addsf3x+0x9c>
    1486:	ba 0f       	add	r27, r26
    1488:	62 1f       	adc	r22, r18
    148a:	73 1f       	adc	r23, r19
    148c:	84 1f       	adc	r24, r20
    148e:	48 f4       	brcc	.+18     	; 0x14a2 <__addsf3x+0x9c>
    1490:	87 95       	ror	r24
    1492:	77 95       	ror	r23
    1494:	67 95       	ror	r22
    1496:	b7 95       	ror	r27
    1498:	f7 95       	ror	r31
    149a:	9e 3f       	cpi	r25, 0xFE	; 254
    149c:	08 f0       	brcs	.+2      	; 0x14a0 <__addsf3x+0x9a>
    149e:	b0 cf       	rjmp	.-160    	; 0x1400 <__addsf3+0x28>
    14a0:	93 95       	inc	r25
    14a2:	88 0f       	add	r24, r24
    14a4:	08 f0       	brcs	.+2      	; 0x14a8 <__addsf3x+0xa2>
    14a6:	99 27       	eor	r25, r25
    14a8:	ee 0f       	add	r30, r30
    14aa:	97 95       	ror	r25
    14ac:	87 95       	ror	r24
    14ae:	08 95       	ret

000014b0 <__cmpsf2>:
    14b0:	0e 94 42 0b 	call	0x1684	; 0x1684 <__fp_cmp>
    14b4:	08 f4       	brcc	.+2      	; 0x14b8 <__cmpsf2+0x8>
    14b6:	81 e0       	ldi	r24, 0x01	; 1
    14b8:	08 95       	ret

000014ba <__divsf3>:
    14ba:	0e 94 71 0a 	call	0x14e2	; 0x14e2 <__divsf3x>
    14be:	0c 94 7d 0b 	jmp	0x16fa	; 0x16fa <__fp_round>
    14c2:	0e 94 76 0b 	call	0x16ec	; 0x16ec <__fp_pscB>
    14c6:	58 f0       	brcs	.+22     	; 0x14de <__divsf3+0x24>
    14c8:	0e 94 6f 0b 	call	0x16de	; 0x16de <__fp_pscA>
    14cc:	40 f0       	brcs	.+16     	; 0x14de <__divsf3+0x24>
    14ce:	29 f4       	brne	.+10     	; 0x14da <__divsf3+0x20>
    14d0:	5f 3f       	cpi	r21, 0xFF	; 255
    14d2:	29 f0       	breq	.+10     	; 0x14de <__divsf3+0x24>
    14d4:	0c 94 66 0b 	jmp	0x16cc	; 0x16cc <__fp_inf>
    14d8:	51 11       	cpse	r21, r1
    14da:	0c 94 b1 0b 	jmp	0x1762	; 0x1762 <__fp_szero>
    14de:	0c 94 6c 0b 	jmp	0x16d8	; 0x16d8 <__fp_nan>

000014e2 <__divsf3x>:
    14e2:	0e 94 8e 0b 	call	0x171c	; 0x171c <__fp_split3>
    14e6:	68 f3       	brcs	.-38     	; 0x14c2 <__divsf3+0x8>

000014e8 <__divsf3_pse>:
    14e8:	99 23       	and	r25, r25
    14ea:	b1 f3       	breq	.-20     	; 0x14d8 <__divsf3+0x1e>
    14ec:	55 23       	and	r21, r21
    14ee:	91 f3       	breq	.-28     	; 0x14d4 <__divsf3+0x1a>
    14f0:	95 1b       	sub	r25, r21
    14f2:	55 0b       	sbc	r21, r21
    14f4:	bb 27       	eor	r27, r27
    14f6:	aa 27       	eor	r26, r26
    14f8:	62 17       	cp	r22, r18
    14fa:	73 07       	cpc	r23, r19
    14fc:	84 07       	cpc	r24, r20
    14fe:	38 f0       	brcs	.+14     	; 0x150e <__divsf3_pse+0x26>
    1500:	9f 5f       	subi	r25, 0xFF	; 255
    1502:	5f 4f       	sbci	r21, 0xFF	; 255
    1504:	22 0f       	add	r18, r18
    1506:	33 1f       	adc	r19, r19
    1508:	44 1f       	adc	r20, r20
    150a:	aa 1f       	adc	r26, r26
    150c:	a9 f3       	breq	.-22     	; 0x14f8 <__divsf3_pse+0x10>
    150e:	35 d0       	rcall	.+106    	; 0x157a <__divsf3_pse+0x92>
    1510:	0e 2e       	mov	r0, r30
    1512:	3a f0       	brmi	.+14     	; 0x1522 <__divsf3_pse+0x3a>
    1514:	e0 e8       	ldi	r30, 0x80	; 128
    1516:	32 d0       	rcall	.+100    	; 0x157c <__divsf3_pse+0x94>
    1518:	91 50       	subi	r25, 0x01	; 1
    151a:	50 40       	sbci	r21, 0x00	; 0
    151c:	e6 95       	lsr	r30
    151e:	00 1c       	adc	r0, r0
    1520:	ca f7       	brpl	.-14     	; 0x1514 <__divsf3_pse+0x2c>
    1522:	2b d0       	rcall	.+86     	; 0x157a <__divsf3_pse+0x92>
    1524:	fe 2f       	mov	r31, r30
    1526:	29 d0       	rcall	.+82     	; 0x157a <__divsf3_pse+0x92>
    1528:	66 0f       	add	r22, r22
    152a:	77 1f       	adc	r23, r23
    152c:	88 1f       	adc	r24, r24
    152e:	bb 1f       	adc	r27, r27
    1530:	26 17       	cp	r18, r22
    1532:	37 07       	cpc	r19, r23
    1534:	48 07       	cpc	r20, r24
    1536:	ab 07       	cpc	r26, r27
    1538:	b0 e8       	ldi	r27, 0x80	; 128
    153a:	09 f0       	breq	.+2      	; 0x153e <__divsf3_pse+0x56>
    153c:	bb 0b       	sbc	r27, r27
    153e:	80 2d       	mov	r24, r0
    1540:	bf 01       	movw	r22, r30
    1542:	ff 27       	eor	r31, r31
    1544:	93 58       	subi	r25, 0x83	; 131
    1546:	5f 4f       	sbci	r21, 0xFF	; 255
    1548:	3a f0       	brmi	.+14     	; 0x1558 <__divsf3_pse+0x70>
    154a:	9e 3f       	cpi	r25, 0xFE	; 254
    154c:	51 05       	cpc	r21, r1
    154e:	78 f0       	brcs	.+30     	; 0x156e <__divsf3_pse+0x86>
    1550:	0c 94 66 0b 	jmp	0x16cc	; 0x16cc <__fp_inf>
    1554:	0c 94 b1 0b 	jmp	0x1762	; 0x1762 <__fp_szero>
    1558:	5f 3f       	cpi	r21, 0xFF	; 255
    155a:	e4 f3       	brlt	.-8      	; 0x1554 <__divsf3_pse+0x6c>
    155c:	98 3e       	cpi	r25, 0xE8	; 232
    155e:	d4 f3       	brlt	.-12     	; 0x1554 <__divsf3_pse+0x6c>
    1560:	86 95       	lsr	r24
    1562:	77 95       	ror	r23
    1564:	67 95       	ror	r22
    1566:	b7 95       	ror	r27
    1568:	f7 95       	ror	r31
    156a:	9f 5f       	subi	r25, 0xFF	; 255
    156c:	c9 f7       	brne	.-14     	; 0x1560 <__divsf3_pse+0x78>
    156e:	88 0f       	add	r24, r24
    1570:	91 1d       	adc	r25, r1
    1572:	96 95       	lsr	r25
    1574:	87 95       	ror	r24
    1576:	97 f9       	bld	r25, 7
    1578:	08 95       	ret
    157a:	e1 e0       	ldi	r30, 0x01	; 1
    157c:	66 0f       	add	r22, r22
    157e:	77 1f       	adc	r23, r23
    1580:	88 1f       	adc	r24, r24
    1582:	bb 1f       	adc	r27, r27
    1584:	62 17       	cp	r22, r18
    1586:	73 07       	cpc	r23, r19
    1588:	84 07       	cpc	r24, r20
    158a:	ba 07       	cpc	r27, r26
    158c:	20 f0       	brcs	.+8      	; 0x1596 <__divsf3_pse+0xae>
    158e:	62 1b       	sub	r22, r18
    1590:	73 0b       	sbc	r23, r19
    1592:	84 0b       	sbc	r24, r20
    1594:	ba 0b       	sbc	r27, r26
    1596:	ee 1f       	adc	r30, r30
    1598:	88 f7       	brcc	.-30     	; 0x157c <__divsf3_pse+0x94>
    159a:	e0 95       	com	r30
    159c:	08 95       	ret

0000159e <__fixsfsi>:
    159e:	0e 94 d6 0a 	call	0x15ac	; 0x15ac <__fixunssfsi>
    15a2:	68 94       	set
    15a4:	b1 11       	cpse	r27, r1
    15a6:	0c 94 b1 0b 	jmp	0x1762	; 0x1762 <__fp_szero>
    15aa:	08 95       	ret

000015ac <__fixunssfsi>:
    15ac:	0e 94 96 0b 	call	0x172c	; 0x172c <__fp_splitA>
    15b0:	88 f0       	brcs	.+34     	; 0x15d4 <__fixunssfsi+0x28>
    15b2:	9f 57       	subi	r25, 0x7F	; 127
    15b4:	98 f0       	brcs	.+38     	; 0x15dc <__fixunssfsi+0x30>
    15b6:	b9 2f       	mov	r27, r25
    15b8:	99 27       	eor	r25, r25
    15ba:	b7 51       	subi	r27, 0x17	; 23
    15bc:	b0 f0       	brcs	.+44     	; 0x15ea <__fixunssfsi+0x3e>
    15be:	e1 f0       	breq	.+56     	; 0x15f8 <__fixunssfsi+0x4c>
    15c0:	66 0f       	add	r22, r22
    15c2:	77 1f       	adc	r23, r23
    15c4:	88 1f       	adc	r24, r24
    15c6:	99 1f       	adc	r25, r25
    15c8:	1a f0       	brmi	.+6      	; 0x15d0 <__fixunssfsi+0x24>
    15ca:	ba 95       	dec	r27
    15cc:	c9 f7       	brne	.-14     	; 0x15c0 <__fixunssfsi+0x14>
    15ce:	14 c0       	rjmp	.+40     	; 0x15f8 <__fixunssfsi+0x4c>
    15d0:	b1 30       	cpi	r27, 0x01	; 1
    15d2:	91 f0       	breq	.+36     	; 0x15f8 <__fixunssfsi+0x4c>
    15d4:	0e 94 b0 0b 	call	0x1760	; 0x1760 <__fp_zero>
    15d8:	b1 e0       	ldi	r27, 0x01	; 1
    15da:	08 95       	ret
    15dc:	0c 94 b0 0b 	jmp	0x1760	; 0x1760 <__fp_zero>
    15e0:	67 2f       	mov	r22, r23
    15e2:	78 2f       	mov	r23, r24
    15e4:	88 27       	eor	r24, r24
    15e6:	b8 5f       	subi	r27, 0xF8	; 248
    15e8:	39 f0       	breq	.+14     	; 0x15f8 <__fixunssfsi+0x4c>
    15ea:	b9 3f       	cpi	r27, 0xF9	; 249
    15ec:	cc f3       	brlt	.-14     	; 0x15e0 <__fixunssfsi+0x34>
    15ee:	86 95       	lsr	r24
    15f0:	77 95       	ror	r23
    15f2:	67 95       	ror	r22
    15f4:	b3 95       	inc	r27
    15f6:	d9 f7       	brne	.-10     	; 0x15ee <__fixunssfsi+0x42>
    15f8:	3e f4       	brtc	.+14     	; 0x1608 <__fixunssfsi+0x5c>
    15fa:	90 95       	com	r25
    15fc:	80 95       	com	r24
    15fe:	70 95       	com	r23
    1600:	61 95       	neg	r22
    1602:	7f 4f       	sbci	r23, 0xFF	; 255
    1604:	8f 4f       	sbci	r24, 0xFF	; 255
    1606:	9f 4f       	sbci	r25, 0xFF	; 255
    1608:	08 95       	ret

0000160a <__floatunsisf>:
    160a:	e8 94       	clt
    160c:	09 c0       	rjmp	.+18     	; 0x1620 <__floatsisf+0x12>

0000160e <__floatsisf>:
    160e:	97 fb       	bst	r25, 7
    1610:	3e f4       	brtc	.+14     	; 0x1620 <__floatsisf+0x12>
    1612:	90 95       	com	r25
    1614:	80 95       	com	r24
    1616:	70 95       	com	r23
    1618:	61 95       	neg	r22
    161a:	7f 4f       	sbci	r23, 0xFF	; 255
    161c:	8f 4f       	sbci	r24, 0xFF	; 255
    161e:	9f 4f       	sbci	r25, 0xFF	; 255
    1620:	99 23       	and	r25, r25
    1622:	a9 f0       	breq	.+42     	; 0x164e <__floatsisf+0x40>
    1624:	f9 2f       	mov	r31, r25
    1626:	96 e9       	ldi	r25, 0x96	; 150
    1628:	bb 27       	eor	r27, r27
    162a:	93 95       	inc	r25
    162c:	f6 95       	lsr	r31
    162e:	87 95       	ror	r24
    1630:	77 95       	ror	r23
    1632:	67 95       	ror	r22
    1634:	b7 95       	ror	r27
    1636:	f1 11       	cpse	r31, r1
    1638:	f8 cf       	rjmp	.-16     	; 0x162a <__floatsisf+0x1c>
    163a:	fa f4       	brpl	.+62     	; 0x167a <__floatsisf+0x6c>
    163c:	bb 0f       	add	r27, r27
    163e:	11 f4       	brne	.+4      	; 0x1644 <__floatsisf+0x36>
    1640:	60 ff       	sbrs	r22, 0
    1642:	1b c0       	rjmp	.+54     	; 0x167a <__floatsisf+0x6c>
    1644:	6f 5f       	subi	r22, 0xFF	; 255
    1646:	7f 4f       	sbci	r23, 0xFF	; 255
    1648:	8f 4f       	sbci	r24, 0xFF	; 255
    164a:	9f 4f       	sbci	r25, 0xFF	; 255
    164c:	16 c0       	rjmp	.+44     	; 0x167a <__floatsisf+0x6c>
    164e:	88 23       	and	r24, r24
    1650:	11 f0       	breq	.+4      	; 0x1656 <__floatsisf+0x48>
    1652:	96 e9       	ldi	r25, 0x96	; 150
    1654:	11 c0       	rjmp	.+34     	; 0x1678 <__floatsisf+0x6a>
    1656:	77 23       	and	r23, r23
    1658:	21 f0       	breq	.+8      	; 0x1662 <__floatsisf+0x54>
    165a:	9e e8       	ldi	r25, 0x8E	; 142
    165c:	87 2f       	mov	r24, r23
    165e:	76 2f       	mov	r23, r22
    1660:	05 c0       	rjmp	.+10     	; 0x166c <__floatsisf+0x5e>
    1662:	66 23       	and	r22, r22
    1664:	71 f0       	breq	.+28     	; 0x1682 <__floatsisf+0x74>
    1666:	96 e8       	ldi	r25, 0x86	; 134
    1668:	86 2f       	mov	r24, r22
    166a:	70 e0       	ldi	r23, 0x00	; 0
    166c:	60 e0       	ldi	r22, 0x00	; 0
    166e:	2a f0       	brmi	.+10     	; 0x167a <__floatsisf+0x6c>
    1670:	9a 95       	dec	r25
    1672:	66 0f       	add	r22, r22
    1674:	77 1f       	adc	r23, r23
    1676:	88 1f       	adc	r24, r24
    1678:	da f7       	brpl	.-10     	; 0x1670 <__floatsisf+0x62>
    167a:	88 0f       	add	r24, r24
    167c:	96 95       	lsr	r25
    167e:	87 95       	ror	r24
    1680:	97 f9       	bld	r25, 7
    1682:	08 95       	ret

00001684 <__fp_cmp>:
    1684:	99 0f       	add	r25, r25
    1686:	00 08       	sbc	r0, r0
    1688:	55 0f       	add	r21, r21
    168a:	aa 0b       	sbc	r26, r26
    168c:	e0 e8       	ldi	r30, 0x80	; 128
    168e:	fe ef       	ldi	r31, 0xFE	; 254
    1690:	16 16       	cp	r1, r22
    1692:	17 06       	cpc	r1, r23
    1694:	e8 07       	cpc	r30, r24
    1696:	f9 07       	cpc	r31, r25
    1698:	c0 f0       	brcs	.+48     	; 0x16ca <__fp_cmp+0x46>
    169a:	12 16       	cp	r1, r18
    169c:	13 06       	cpc	r1, r19
    169e:	e4 07       	cpc	r30, r20
    16a0:	f5 07       	cpc	r31, r21
    16a2:	98 f0       	brcs	.+38     	; 0x16ca <__fp_cmp+0x46>
    16a4:	62 1b       	sub	r22, r18
    16a6:	73 0b       	sbc	r23, r19
    16a8:	84 0b       	sbc	r24, r20
    16aa:	95 0b       	sbc	r25, r21
    16ac:	39 f4       	brne	.+14     	; 0x16bc <__fp_cmp+0x38>
    16ae:	0a 26       	eor	r0, r26
    16b0:	61 f0       	breq	.+24     	; 0x16ca <__fp_cmp+0x46>
    16b2:	23 2b       	or	r18, r19
    16b4:	24 2b       	or	r18, r20
    16b6:	25 2b       	or	r18, r21
    16b8:	21 f4       	brne	.+8      	; 0x16c2 <__fp_cmp+0x3e>
    16ba:	08 95       	ret
    16bc:	0a 26       	eor	r0, r26
    16be:	09 f4       	brne	.+2      	; 0x16c2 <__fp_cmp+0x3e>
    16c0:	a1 40       	sbci	r26, 0x01	; 1
    16c2:	a6 95       	lsr	r26
    16c4:	8f ef       	ldi	r24, 0xFF	; 255
    16c6:	81 1d       	adc	r24, r1
    16c8:	81 1d       	adc	r24, r1
    16ca:	08 95       	ret

000016cc <__fp_inf>:
    16cc:	97 f9       	bld	r25, 7
    16ce:	9f 67       	ori	r25, 0x7F	; 127
    16d0:	80 e8       	ldi	r24, 0x80	; 128
    16d2:	70 e0       	ldi	r23, 0x00	; 0
    16d4:	60 e0       	ldi	r22, 0x00	; 0
    16d6:	08 95       	ret

000016d8 <__fp_nan>:
    16d8:	9f ef       	ldi	r25, 0xFF	; 255
    16da:	80 ec       	ldi	r24, 0xC0	; 192
    16dc:	08 95       	ret

000016de <__fp_pscA>:
    16de:	00 24       	eor	r0, r0
    16e0:	0a 94       	dec	r0
    16e2:	16 16       	cp	r1, r22
    16e4:	17 06       	cpc	r1, r23
    16e6:	18 06       	cpc	r1, r24
    16e8:	09 06       	cpc	r0, r25
    16ea:	08 95       	ret

000016ec <__fp_pscB>:
    16ec:	00 24       	eor	r0, r0
    16ee:	0a 94       	dec	r0
    16f0:	12 16       	cp	r1, r18
    16f2:	13 06       	cpc	r1, r19
    16f4:	14 06       	cpc	r1, r20
    16f6:	05 06       	cpc	r0, r21
    16f8:	08 95       	ret

000016fa <__fp_round>:
    16fa:	09 2e       	mov	r0, r25
    16fc:	03 94       	inc	r0
    16fe:	00 0c       	add	r0, r0
    1700:	11 f4       	brne	.+4      	; 0x1706 <__fp_round+0xc>
    1702:	88 23       	and	r24, r24
    1704:	52 f0       	brmi	.+20     	; 0x171a <__fp_round+0x20>
    1706:	bb 0f       	add	r27, r27
    1708:	40 f4       	brcc	.+16     	; 0x171a <__fp_round+0x20>
    170a:	bf 2b       	or	r27, r31
    170c:	11 f4       	brne	.+4      	; 0x1712 <__fp_round+0x18>
    170e:	60 ff       	sbrs	r22, 0
    1710:	04 c0       	rjmp	.+8      	; 0x171a <__fp_round+0x20>
    1712:	6f 5f       	subi	r22, 0xFF	; 255
    1714:	7f 4f       	sbci	r23, 0xFF	; 255
    1716:	8f 4f       	sbci	r24, 0xFF	; 255
    1718:	9f 4f       	sbci	r25, 0xFF	; 255
    171a:	08 95       	ret

0000171c <__fp_split3>:
    171c:	57 fd       	sbrc	r21, 7
    171e:	90 58       	subi	r25, 0x80	; 128
    1720:	44 0f       	add	r20, r20
    1722:	55 1f       	adc	r21, r21
    1724:	59 f0       	breq	.+22     	; 0x173c <__fp_splitA+0x10>
    1726:	5f 3f       	cpi	r21, 0xFF	; 255
    1728:	71 f0       	breq	.+28     	; 0x1746 <__fp_splitA+0x1a>
    172a:	47 95       	ror	r20

0000172c <__fp_splitA>:
    172c:	88 0f       	add	r24, r24
    172e:	97 fb       	bst	r25, 7
    1730:	99 1f       	adc	r25, r25
    1732:	61 f0       	breq	.+24     	; 0x174c <__fp_splitA+0x20>
    1734:	9f 3f       	cpi	r25, 0xFF	; 255
    1736:	79 f0       	breq	.+30     	; 0x1756 <__fp_splitA+0x2a>
    1738:	87 95       	ror	r24
    173a:	08 95       	ret
    173c:	12 16       	cp	r1, r18
    173e:	13 06       	cpc	r1, r19
    1740:	14 06       	cpc	r1, r20
    1742:	55 1f       	adc	r21, r21
    1744:	f2 cf       	rjmp	.-28     	; 0x172a <__fp_split3+0xe>
    1746:	46 95       	lsr	r20
    1748:	f1 df       	rcall	.-30     	; 0x172c <__fp_splitA>
    174a:	08 c0       	rjmp	.+16     	; 0x175c <__fp_splitA+0x30>
    174c:	16 16       	cp	r1, r22
    174e:	17 06       	cpc	r1, r23
    1750:	18 06       	cpc	r1, r24
    1752:	99 1f       	adc	r25, r25
    1754:	f1 cf       	rjmp	.-30     	; 0x1738 <__fp_splitA+0xc>
    1756:	86 95       	lsr	r24
    1758:	71 05       	cpc	r23, r1
    175a:	61 05       	cpc	r22, r1
    175c:	08 94       	sec
    175e:	08 95       	ret

00001760 <__fp_zero>:
    1760:	e8 94       	clt

00001762 <__fp_szero>:
    1762:	bb 27       	eor	r27, r27
    1764:	66 27       	eor	r22, r22
    1766:	77 27       	eor	r23, r23
    1768:	cb 01       	movw	r24, r22
    176a:	97 f9       	bld	r25, 7
    176c:	08 95       	ret

0000176e <__mulsf3>:
    176e:	0e 94 ca 0b 	call	0x1794	; 0x1794 <__mulsf3x>
    1772:	0c 94 7d 0b 	jmp	0x16fa	; 0x16fa <__fp_round>
    1776:	0e 94 6f 0b 	call	0x16de	; 0x16de <__fp_pscA>
    177a:	38 f0       	brcs	.+14     	; 0x178a <__mulsf3+0x1c>
    177c:	0e 94 76 0b 	call	0x16ec	; 0x16ec <__fp_pscB>
    1780:	20 f0       	brcs	.+8      	; 0x178a <__mulsf3+0x1c>
    1782:	95 23       	and	r25, r21
    1784:	11 f0       	breq	.+4      	; 0x178a <__mulsf3+0x1c>
    1786:	0c 94 66 0b 	jmp	0x16cc	; 0x16cc <__fp_inf>
    178a:	0c 94 6c 0b 	jmp	0x16d8	; 0x16d8 <__fp_nan>
    178e:	11 24       	eor	r1, r1
    1790:	0c 94 b1 0b 	jmp	0x1762	; 0x1762 <__fp_szero>

00001794 <__mulsf3x>:
    1794:	0e 94 8e 0b 	call	0x171c	; 0x171c <__fp_split3>
    1798:	70 f3       	brcs	.-36     	; 0x1776 <__mulsf3+0x8>

0000179a <__mulsf3_pse>:
    179a:	95 9f       	mul	r25, r21
    179c:	c1 f3       	breq	.-16     	; 0x178e <__mulsf3+0x20>
    179e:	95 0f       	add	r25, r21
    17a0:	50 e0       	ldi	r21, 0x00	; 0
    17a2:	55 1f       	adc	r21, r21
    17a4:	62 9f       	mul	r22, r18
    17a6:	f0 01       	movw	r30, r0
    17a8:	72 9f       	mul	r23, r18
    17aa:	bb 27       	eor	r27, r27
    17ac:	f0 0d       	add	r31, r0
    17ae:	b1 1d       	adc	r27, r1
    17b0:	63 9f       	mul	r22, r19
    17b2:	aa 27       	eor	r26, r26
    17b4:	f0 0d       	add	r31, r0
    17b6:	b1 1d       	adc	r27, r1
    17b8:	aa 1f       	adc	r26, r26
    17ba:	64 9f       	mul	r22, r20
    17bc:	66 27       	eor	r22, r22
    17be:	b0 0d       	add	r27, r0
    17c0:	a1 1d       	adc	r26, r1
    17c2:	66 1f       	adc	r22, r22
    17c4:	82 9f       	mul	r24, r18
    17c6:	22 27       	eor	r18, r18
    17c8:	b0 0d       	add	r27, r0
    17ca:	a1 1d       	adc	r26, r1
    17cc:	62 1f       	adc	r22, r18
    17ce:	73 9f       	mul	r23, r19
    17d0:	b0 0d       	add	r27, r0
    17d2:	a1 1d       	adc	r26, r1
    17d4:	62 1f       	adc	r22, r18
    17d6:	83 9f       	mul	r24, r19
    17d8:	a0 0d       	add	r26, r0
    17da:	61 1d       	adc	r22, r1
    17dc:	22 1f       	adc	r18, r18
    17de:	74 9f       	mul	r23, r20
    17e0:	33 27       	eor	r19, r19
    17e2:	a0 0d       	add	r26, r0
    17e4:	61 1d       	adc	r22, r1
    17e6:	23 1f       	adc	r18, r19
    17e8:	84 9f       	mul	r24, r20
    17ea:	60 0d       	add	r22, r0
    17ec:	21 1d       	adc	r18, r1
    17ee:	82 2f       	mov	r24, r18
    17f0:	76 2f       	mov	r23, r22
    17f2:	6a 2f       	mov	r22, r26
    17f4:	11 24       	eor	r1, r1
    17f6:	9f 57       	subi	r25, 0x7F	; 127
    17f8:	50 40       	sbci	r21, 0x00	; 0
    17fa:	9a f0       	brmi	.+38     	; 0x1822 <__mulsf3_pse+0x88>
    17fc:	f1 f0       	breq	.+60     	; 0x183a <__mulsf3_pse+0xa0>
    17fe:	88 23       	and	r24, r24
    1800:	4a f0       	brmi	.+18     	; 0x1814 <__mulsf3_pse+0x7a>
    1802:	ee 0f       	add	r30, r30
    1804:	ff 1f       	adc	r31, r31
    1806:	bb 1f       	adc	r27, r27
    1808:	66 1f       	adc	r22, r22
    180a:	77 1f       	adc	r23, r23
    180c:	88 1f       	adc	r24, r24
    180e:	91 50       	subi	r25, 0x01	; 1
    1810:	50 40       	sbci	r21, 0x00	; 0
    1812:	a9 f7       	brne	.-22     	; 0x17fe <__mulsf3_pse+0x64>
    1814:	9e 3f       	cpi	r25, 0xFE	; 254
    1816:	51 05       	cpc	r21, r1
    1818:	80 f0       	brcs	.+32     	; 0x183a <__mulsf3_pse+0xa0>
    181a:	0c 94 66 0b 	jmp	0x16cc	; 0x16cc <__fp_inf>
    181e:	0c 94 b1 0b 	jmp	0x1762	; 0x1762 <__fp_szero>
    1822:	5f 3f       	cpi	r21, 0xFF	; 255
    1824:	e4 f3       	brlt	.-8      	; 0x181e <__mulsf3_pse+0x84>
    1826:	98 3e       	cpi	r25, 0xE8	; 232
    1828:	d4 f3       	brlt	.-12     	; 0x181e <__mulsf3_pse+0x84>
    182a:	86 95       	lsr	r24
    182c:	77 95       	ror	r23
    182e:	67 95       	ror	r22
    1830:	b7 95       	ror	r27
    1832:	f7 95       	ror	r31
    1834:	e7 95       	ror	r30
    1836:	9f 5f       	subi	r25, 0xFF	; 255
    1838:	c1 f7       	brne	.-16     	; 0x182a <__mulsf3_pse+0x90>
    183a:	fe 2b       	or	r31, r30
    183c:	88 0f       	add	r24, r24
    183e:	91 1d       	adc	r25, r1
    1840:	96 95       	lsr	r25
    1842:	87 95       	ror	r24
    1844:	97 f9       	bld	r25, 7
    1846:	08 95       	ret

00001848 <__divmodhi4>:
    1848:	97 fb       	bst	r25, 7
    184a:	07 2e       	mov	r0, r23
    184c:	16 f4       	brtc	.+4      	; 0x1852 <__divmodhi4+0xa>
    184e:	00 94       	com	r0
    1850:	07 d0       	rcall	.+14     	; 0x1860 <__divmodhi4_neg1>
    1852:	77 fd       	sbrc	r23, 7
    1854:	09 d0       	rcall	.+18     	; 0x1868 <__divmodhi4_neg2>
    1856:	0e 94 38 0c 	call	0x1870	; 0x1870 <__udivmodhi4>
    185a:	07 fc       	sbrc	r0, 7
    185c:	05 d0       	rcall	.+10     	; 0x1868 <__divmodhi4_neg2>
    185e:	3e f4       	brtc	.+14     	; 0x186e <__divmodhi4_exit>

00001860 <__divmodhi4_neg1>:
    1860:	90 95       	com	r25
    1862:	81 95       	neg	r24
    1864:	9f 4f       	sbci	r25, 0xFF	; 255
    1866:	08 95       	ret

00001868 <__divmodhi4_neg2>:
    1868:	70 95       	com	r23
    186a:	61 95       	neg	r22
    186c:	7f 4f       	sbci	r23, 0xFF	; 255

0000186e <__divmodhi4_exit>:
    186e:	08 95       	ret

00001870 <__udivmodhi4>:
    1870:	aa 1b       	sub	r26, r26
    1872:	bb 1b       	sub	r27, r27
    1874:	51 e1       	ldi	r21, 0x11	; 17
    1876:	07 c0       	rjmp	.+14     	; 0x1886 <__udivmodhi4_ep>

00001878 <__udivmodhi4_loop>:
    1878:	aa 1f       	adc	r26, r26
    187a:	bb 1f       	adc	r27, r27
    187c:	a6 17       	cp	r26, r22
    187e:	b7 07       	cpc	r27, r23
    1880:	10 f0       	brcs	.+4      	; 0x1886 <__udivmodhi4_ep>
    1882:	a6 1b       	sub	r26, r22
    1884:	b7 0b       	sbc	r27, r23

00001886 <__udivmodhi4_ep>:
    1886:	88 1f       	adc	r24, r24
    1888:	99 1f       	adc	r25, r25
    188a:	5a 95       	dec	r21
    188c:	a9 f7       	brne	.-22     	; 0x1878 <__udivmodhi4_loop>
    188e:	80 95       	com	r24
    1890:	90 95       	com	r25
    1892:	bc 01       	movw	r22, r24
    1894:	cd 01       	movw	r24, r26
    1896:	08 95       	ret

00001898 <_exit>:
    1898:	f8 94       	cli

0000189a <__stop_program>:
    189a:	ff cf       	rjmp	.-2      	; 0x189a <__stop_program>
