
object_counter_OLED.elf:     file format elf32-avr

Sections:
Idx Name          Size      VMA       LMA       File off  Algn
  0 .data         0000020a  00800100  00000e30  00000ec4  2**0
                  CONTENTS, ALLOC, LOAD, DATA
  1 .text         00000e30  00000000  00000000  00000094  2**1
                  CONTENTS, ALLOC, LOAD, READONLY, CODE
  2 .bss          00000029  0080030a  0080030a  000010ce  2**0
                  ALLOC
  3 .comment      0000005c  00000000  00000000  000010ce  2**0
                  CONTENTS, READONLY
  4 .note.gnu.avr.deviceinfo 00000040  00000000  00000000  0000112c  2**2
                  CONTENTS, READONLY
  5 .debug_aranges 00000148  00000000  00000000  0000116c  2**0
                  CONTENTS, READONLY, DEBUGGING
  6 .debug_info   00001783  00000000  00000000  000012b4  2**0
                  CONTENTS, READONLY, DEBUGGING
  7 .debug_abbrev 00000b67  00000000  00000000  00002a37  2**0
                  CONTENTS, READONLY, DEBUGGING
  8 .debug_line   00000bfd  00000000  00000000  0000359e  2**0
                  CONTENTS, READONLY, DEBUGGING
  9 .debug_frame  000002c8  00000000  00000000  0000419c  2**2
                  CONTENTS, READONLY, DEBUGGING
 10 .debug_str    00000607  00000000  00000000  00004464  2**0
                  CONTENTS, READONLY, DEBUGGING
 11 .debug_loc    00000894  00000000  00000000  00004a6b  2**0
                  CONTENTS, READONLY, DEBUGGING
 12 .debug_ranges 00000110  00000000  00000000  000052ff  2**0
                  CONTENTS, READONLY, DEBUGGING

Disassembly of section .text:

00000000 <__vectors>:
   0:	0c 94 34 00 	jmp	0x68	; 0x68 <__ctors_end>
   4:	0c 94 51 00 	jmp	0xa2	; 0xa2 <__bad_interrupt>
   8:	0c 94 51 00 	jmp	0xa2	; 0xa2 <__bad_interrupt>
   c:	0c 94 51 00 	jmp	0xa2	; 0xa2 <__bad_interrupt>
  10:	0c 94 51 00 	jmp	0xa2	; 0xa2 <__bad_interrupt>
  14:	0c 94 51 00 	jmp	0xa2	; 0xa2 <__bad_interrupt>
  18:	0c 94 51 00 	jmp	0xa2	; 0xa2 <__bad_interrupt>
  1c:	0c 94 51 00 	jmp	0xa2	; 0xa2 <__bad_interrupt>
  20:	0c 94 51 00 	jmp	0xa2	; 0xa2 <__bad_interrupt>
  24:	0c 94 51 00 	jmp	0xa2	; 0xa2 <__bad_interrupt>
  28:	0c 94 51 00 	jmp	0xa2	; 0xa2 <__bad_interrupt>
  2c:	0c 94 51 00 	jmp	0xa2	; 0xa2 <__bad_interrupt>
  30:	0c 94 51 00 	jmp	0xa2	; 0xa2 <__bad_interrupt>
  34:	0c 94 51 00 	jmp	0xa2	; 0xa2 <__bad_interrupt>
  38:	0c 94 51 00 	jmp	0xa2	; 0xa2 <__bad_interrupt>
  3c:	0c 94 51 00 	jmp	0xa2	; 0xa2 <__bad_interrupt>
  40:	0c 94 51 00 	jmp	0xa2	; 0xa2 <__bad_interrupt>
  44:	0c 94 51 00 	jmp	0xa2	; 0xa2 <__bad_interrupt>
  48:	0c 94 51 00 	jmp	0xa2	; 0xa2 <__bad_interrupt>
  4c:	0c 94 51 00 	jmp	0xa2	; 0xa2 <__bad_interrupt>
  50:	0c 94 51 00 	jmp	0xa2	; 0xa2 <__bad_interrupt>
  54:	0c 94 51 00 	jmp	0xa2	; 0xa2 <__bad_interrupt>
  58:	0c 94 51 00 	jmp	0xa2	; 0xa2 <__bad_interrupt>
  5c:	0c 94 51 00 	jmp	0xa2	; 0xa2 <__bad_interrupt>
  60:	0c 94 51 00 	jmp	0xa2	; 0xa2 <__bad_interrupt>
  64:	0c 94 51 00 	jmp	0xa2	; 0xa2 <__bad_interrupt>

00000068 <__ctors_end>:
  68:	11 24       	eor	r1, r1
  6a:	1f be       	out	0x3f, r1	; 63
  6c:	cf ef       	ldi	r28, 0xFF	; 255
  6e:	d8 e0       	ldi	r29, 0x08	; 8
  70:	de bf       	out	0x3e, r29	; 62
  72:	cd bf       	out	0x3d, r28	; 61

00000074 <__do_copy_data>:
  74:	13 e0       	ldi	r17, 0x03	; 3
  76:	a0 e0       	ldi	r26, 0x00	; 0
  78:	b1 e0       	ldi	r27, 0x01	; 1
  7a:	e0 e3       	ldi	r30, 0x30	; 48
  7c:	fe e0       	ldi	r31, 0x0E	; 14
  7e:	02 c0       	rjmp	.+4      	; 0x84 <__do_copy_data+0x10>
  80:	05 90       	lpm	r0, Z+
  82:	0d 92       	st	X+, r0
  84:	aa 30       	cpi	r26, 0x0A	; 10
  86:	b1 07       	cpc	r27, r17
  88:	d9 f7       	brne	.-10     	; 0x80 <__do_copy_data+0xc>

0000008a <__do_clear_bss>:
  8a:	23 e0       	ldi	r18, 0x03	; 3
  8c:	aa e0       	ldi	r26, 0x0A	; 10
  8e:	b3 e0       	ldi	r27, 0x03	; 3
  90:	01 c0       	rjmp	.+2      	; 0x94 <.do_clear_bss_start>

00000092 <.do_clear_bss_loop>:
  92:	1d 92       	st	X+, r1

00000094 <.do_clear_bss_start>:
  94:	a3 33       	cpi	r26, 0x33	; 51
  96:	b2 07       	cpc	r27, r18
  98:	e1 f7       	brne	.-8      	; 0x92 <.do_clear_bss_loop>
  9a:	0e 94 62 01 	call	0x2c4	; 0x2c4 <main>
  9e:	0c 94 16 07 	jmp	0xe2c	; 0xe2c <_exit>

000000a2 <__bad_interrupt>:
  a2:	0c 94 00 00 	jmp	0	; 0x0 <__vectors>

000000a6 <Button_Init>:
#include <util/delay.h>

/* ---------------- Button Init ---------------- */
void Button_Init(void)
{
	DDRD &= ~((1 << START_STOP_BTN) | (1 << RESET_BTN)); // Input
  a6:	8a b1       	in	r24, 0x0a	; 10
  a8:	83 7f       	andi	r24, 0xF3	; 243
  aa:	8a b9       	out	0x0a, r24	; 10
	PORTD |= (1 << START_STOP_BTN) | (1 << RESET_BTN);  // Pull-up
  ac:	8b b1       	in	r24, 0x0b	; 11
  ae:	8c 60       	ori	r24, 0x0C	; 12
  b0:	8b b9       	out	0x0b, r24	; 11
  b2:	08 95       	ret

000000b4 <Button_Pressed>:
}

/* ---------------- Button Press Detect ---------------- */
uint8_t Button_Pressed(uint8_t pin)
{
	if (!(PIND & (1 << pin)))
  b4:	29 b1       	in	r18, 0x09	; 9
  b6:	48 2f       	mov	r20, r24
  b8:	30 e0       	ldi	r19, 0x00	; 0
  ba:	08 2e       	mov	r0, r24
  bc:	02 c0       	rjmp	.+4      	; 0xc2 <Button_Pressed+0xe>
  be:	35 95       	asr	r19
  c0:	27 95       	ror	r18
  c2:	0a 94       	dec	r0
  c4:	e2 f7       	brpl	.-8      	; 0xbe <Button_Pressed+0xa>
  c6:	20 fd       	sbrc	r18, 0
  c8:	1f c0       	rjmp	.+62     	; 0x108 <Button_Pressed+0x54>
	#else
		//round up by default
		__ticks_dc = (uint32_t)(ceil(fabs(__tmp)));
	#endif

	__builtin_avr_delay_cycles(__ticks_dc);
  ca:	2f ef       	ldi	r18, 0xFF	; 255
  cc:	39 ef       	ldi	r19, 0xF9	; 249
  ce:	60 e0       	ldi	r22, 0x00	; 0
  d0:	21 50       	subi	r18, 0x01	; 1
  d2:	30 40       	sbci	r19, 0x00	; 0
  d4:	60 40       	sbci	r22, 0x00	; 0
  d6:	e1 f7       	brne	.-8      	; 0xd0 <Button_Pressed+0x1c>
  d8:	00 c0       	rjmp	.+0      	; 0xda <Button_Pressed+0x26>
  da:	00 00       	nop
	{
		_delay_ms(20);                    // Debounce
		if (!(PIND & (1 << pin)))
  dc:	29 b1       	in	r18, 0x09	; 9
  de:	30 e0       	ldi	r19, 0x00	; 0
  e0:	b9 01       	movw	r22, r18
  e2:	02 c0       	rjmp	.+4      	; 0xe8 <Button_Pressed+0x34>
  e4:	75 95       	asr	r23
  e6:	67 95       	ror	r22
  e8:	8a 95       	dec	r24
  ea:	e2 f7       	brpl	.-8      	; 0xe4 <Button_Pressed+0x30>
  ec:	60 fd       	sbrc	r22, 0
  ee:	0e c0       	rjmp	.+28     	; 0x10c <Button_Pressed+0x58>
		{
			while (!(PIND & (1 << pin))); // Wait for release
  f0:	89 b1       	in	r24, 0x09	; 9
  f2:	90 e0       	ldi	r25, 0x00	; 0
  f4:	04 2e       	mov	r0, r20
  f6:	02 c0       	rjmp	.+4      	; 0xfc <Button_Pressed+0x48>
  f8:	95 95       	asr	r25
  fa:	87 95       	ror	r24
  fc:	0a 94       	dec	r0
  fe:	e2 f7       	brpl	.-8      	; 0xf8 <Button_Pressed+0x44>
 100:	80 ff       	sbrs	r24, 0
 102:	f6 cf       	rjmp	.-20     	; 0xf0 <Button_Pressed+0x3c>
			return 1;
 104:	81 e0       	ldi	r24, 0x01	; 1
 106:	08 95       	ret
		}
	}
	return 0;
 108:	80 e0       	ldi	r24, 0x00	; 0
 10a:	08 95       	ret
 10c:	80 e0       	ldi	r24, 0x00	; 0
 10e:	08 95       	ret

00000110 <hcsr04_IO_Init>:



void hcsr04_IO_Init(void)
{
	DDRB|=(1<<TRIG); // TRIG INPUT TO ULTRASONIC SENSOR, IT WILL BE OUTPUT FROM AVR
 110:	84 b1       	in	r24, 0x04	; 4
 112:	81 60       	ori	r24, 0x01	; 1
 114:	84 b9       	out	0x04, r24	; 4
	DDRB&=~(1<<ECHO); // ECHO FROM SENSOR, IT WILL BE INPUT TO SENSOR
 116:	84 b1       	in	r24, 0x04	; 4
 118:	8d 7f       	andi	r24, 0xFD	; 253
 11a:	84 b9       	out	0x04, r24	; 4
 11c:	08 95       	ret

0000011e <hcsr04_EN_trigger>:
}

void hcsr04_EN_trigger(void)
{
	PORTB&=~(1<<TRIG); // TRIG pulse low edge
 11e:	85 b1       	in	r24, 0x05	; 5
 120:	8e 7f       	andi	r24, 0xFE	; 254
 122:	85 b9       	out	0x05, r24	; 5
	#else
		//round up by default
		__ticks_dc = (uint32_t)(ceil(fabs(__tmp)));
	#endif

	__builtin_avr_delay_cycles(__ticks_dc);
 124:	8a e0       	ldi	r24, 0x0A	; 10
 126:	8a 95       	dec	r24
 128:	f1 f7       	brne	.-4      	; 0x126 <hcsr04_EN_trigger+0x8>
 12a:	00 c0       	rjmp	.+0      	; 0x12c <hcsr04_EN_trigger+0xe>
	_delay_us(2);
	PORTB|=(1<<TRIG); // trig pulse high edge
 12c:	85 b1       	in	r24, 0x05	; 5
 12e:	81 60       	ori	r24, 0x01	; 1
 130:	85 b9       	out	0x05, r24	; 5
 132:	85 e3       	ldi	r24, 0x35	; 53
 134:	8a 95       	dec	r24
 136:	f1 f7       	brne	.-4      	; 0x134 <hcsr04_EN_trigger+0x16>
 138:	00 00       	nop
	_delay_us(10);
	PORTB&=~(1<<TRIG); // trig pulse low edge
 13a:	85 b1       	in	r24, 0x05	; 5
 13c:	8e 7f       	andi	r24, 0xFE	; 254
 13e:	85 b9       	out	0x05, r24	; 5
	while(!(PINB&(1<<ECHO))); // wait for echo high 
 140:	19 9b       	sbis	0x03, 1	; 3
 142:	fe cf       	rjmp	.-4      	; 0x140 <hcsr04_EN_trigger+0x22>
}
 144:	08 95       	ret

00000146 <measure_distance>:
	
float measure_distance(void)
{
	// count how long echo stays high
	float count=0;
 146:	60 e0       	ldi	r22, 0x00	; 0
 148:	70 e0       	ldi	r23, 0x00	; 0
 14a:	cb 01       	movw	r24, r22
	while(PINB&(1<<ECHO))
 14c:	0a c0       	rjmp	.+20     	; 0x162 <measure_distance+0x1c>
 14e:	25 e0       	ldi	r18, 0x05	; 5
 150:	2a 95       	dec	r18
 152:	f1 f7       	brne	.-4      	; 0x150 <measure_distance+0xa>
 154:	00 00       	nop
	{
		_delay_us(1);
		count++;
 156:	20 e0       	ldi	r18, 0x00	; 0
 158:	30 e0       	ldi	r19, 0x00	; 0
 15a:	40 e8       	ldi	r20, 0x80	; 128
 15c:	5f e3       	ldi	r21, 0x3F	; 63
 15e:	0e 94 62 02 	call	0x4c4	; 0x4c4 <__addsf3>
	
float measure_distance(void)
{
	// count how long echo stays high
	float count=0;
	while(PINB&(1<<ECHO))
 162:	19 99       	sbic	0x03, 1	; 3
 164:	f4 cf       	rjmp	.-24     	; 0x14e <measure_distance+0x8>
	{
		_delay_us(1);
		count++;
	}
	return count/58.0;
 166:	20 e0       	ldi	r18, 0x00	; 0
 168:	30 e0       	ldi	r19, 0x00	; 0
 16a:	48 e6       	ldi	r20, 0x68	; 104
 16c:	52 e4       	ldi	r21, 0x42	; 66
 16e:	0e 94 d3 02 	call	0x5a6	; 0x5a6 <__divsf3>
	
}
 172:	08 95       	ret

00000174 <I2C_Init>:
#include<avr/io.h>
#include "i2c.h"

void I2C_Init(void)
{
	TWSR = 0x00;       // Prescaler = 1
 174:	10 92 b9 00 	sts	0x00B9, r1	; 0x8000b9 <__TEXT_REGION_LENGTH__+0x7f80b9>
	TWBR = 72;         // 100kHz @ 16MHz
 178:	88 e4       	ldi	r24, 0x48	; 72
 17a:	80 93 b8 00 	sts	0x00B8, r24	; 0x8000b8 <__TEXT_REGION_LENGTH__+0x7f80b8>
	TWCR = (1<<TWEN);  // Enable TWI
 17e:	84 e0       	ldi	r24, 0x04	; 4
 180:	80 93 bc 00 	sts	0x00BC, r24	; 0x8000bc <__TEXT_REGION_LENGTH__+0x7f80bc>
 184:	08 95       	ret

00000186 <I2C_Start>:
}

void I2C_Start(void)
{
	TWCR = (1<<TWINT)|(1<<TWSTA)|(1<<TWEN);
 186:	84 ea       	ldi	r24, 0xA4	; 164
 188:	80 93 bc 00 	sts	0x00BC, r24	; 0x8000bc <__TEXT_REGION_LENGTH__+0x7f80bc>
	while (!(TWCR & (1<<TWINT)));
 18c:	80 91 bc 00 	lds	r24, 0x00BC	; 0x8000bc <__TEXT_REGION_LENGTH__+0x7f80bc>
 190:	88 23       	and	r24, r24
 192:	e4 f7       	brge	.-8      	; 0x18c <I2C_Start+0x6>
}
 194:	08 95       	ret

00000196 <I2C_Stop>:

void I2C_Stop(void)
{
	TWCR = (1<<TWINT)|(1<<TWEN)|(1<<TWSTO);
 196:	84 e9       	ldi	r24, 0x94	; 148
 198:	80 93 bc 00 	sts	0x00BC, r24	; 0x8000bc <__TEXT_REGION_LENGTH__+0x7f80bc>
 19c:	08 95       	ret

0000019e <I2C_Write>:
}

void I2C_Write(uint8_t data)
{
	TWDR = data;
 19e:	80 93 bb 00 	sts	0x00BB, r24	; 0x8000bb <__TEXT_REGION_LENGTH__+0x7f80bb>
	TWCR = (1<<TWINT)|(1<<TWEN);
 1a2:	84 e8       	ldi	r24, 0x84	; 132
 1a4:	80 93 bc 00 	sts	0x00BC, r24	; 0x8000bc <__TEXT_REGION_LENGTH__+0x7f80bc>
	while (!(TWCR & (1<<TWINT)));
 1a8:	80 91 bc 00 	lds	r24, 0x00BC	; 0x8000bc <__TEXT_REGION_LENGTH__+0x7f80bc>
 1ac:	88 23       	and	r24, r24
 1ae:	e4 f7       	brge	.-8      	; 0x1a8 <I2C_Write+0xa>
}
 1b0:	08 95       	ret

000001b2 <count>:
volatile uint8_t counter_run = 0;
char buffer[32];

// counting function
void count(void)
{
 1b2:	cf 92       	push	r12
 1b4:	df 92       	push	r13
 1b6:	ef 92       	push	r14
 1b8:	ff 92       	push	r15
	hcsr04_EN_trigger();
 1ba:	0e 94 8f 00 	call	0x11e	; 0x11e <hcsr04_EN_trigger>
	distance=10*measure_distance();
 1be:	0e 94 a3 00 	call	0x146	; 0x146 <measure_distance>
 1c2:	20 e0       	ldi	r18, 0x00	; 0
 1c4:	30 e0       	ldi	r19, 0x00	; 0
 1c6:	40 e2       	ldi	r20, 0x20	; 32
 1c8:	51 e4       	ldi	r21, 0x41	; 65
 1ca:	0e 94 bf 03 	call	0x77e	; 0x77e <__mulsf3>
 1ce:	6b 01       	movw	r12, r22
 1d0:	7c 01       	movw	r14, r24
 1d2:	60 93 0b 03 	sts	0x030B, r22	; 0x80030b <distance>
 1d6:	70 93 0c 03 	sts	0x030C, r23	; 0x80030c <distance+0x1>
 1da:	80 93 0d 03 	sts	0x030D, r24	; 0x80030d <distance+0x2>
 1de:	90 93 0e 03 	sts	0x030E, r25	; 0x80030e <distance+0x3>

	if (distance<=10 && obj_present==0)
 1e2:	20 e0       	ldi	r18, 0x00	; 0
 1e4:	30 e0       	ldi	r19, 0x00	; 0
 1e6:	40 e2       	ldi	r20, 0x20	; 32
 1e8:	51 e4       	ldi	r21, 0x41	; 65
 1ea:	0e 94 ce 02 	call	0x59c	; 0x59c <__cmpsf2>
 1ee:	18 16       	cp	r1, r24
 1f0:	b4 f0       	brlt	.+44     	; 0x21e <count+0x6c>
 1f2:	80 91 11 03 	lds	r24, 0x0311	; 0x800311 <obj_present>
 1f6:	90 91 12 03 	lds	r25, 0x0312	; 0x800312 <obj_present+0x1>
 1fa:	89 2b       	or	r24, r25
 1fc:	81 f4       	brne	.+32     	; 0x21e <count+0x6c>
	{
		obj_count++;
 1fe:	80 91 0f 03 	lds	r24, 0x030F	; 0x80030f <obj_count>
 202:	90 91 10 03 	lds	r25, 0x0310	; 0x800310 <obj_count+0x1>
 206:	01 96       	adiw	r24, 0x01	; 1
 208:	90 93 10 03 	sts	0x0310, r25	; 0x800310 <obj_count+0x1>
 20c:	80 93 0f 03 	sts	0x030F, r24	; 0x80030f <obj_count>
		obj_present=1;
 210:	81 e0       	ldi	r24, 0x01	; 1
 212:	90 e0       	ldi	r25, 0x00	; 0
 214:	90 93 12 03 	sts	0x0312, r25	; 0x800312 <obj_present+0x1>
 218:	80 93 11 03 	sts	0x0311, r24	; 0x800311 <obj_present>
 21c:	0e c0       	rjmp	.+28     	; 0x23a <count+0x88>
	}

	else if (distance>10)
 21e:	20 e0       	ldi	r18, 0x00	; 0
 220:	30 e0       	ldi	r19, 0x00	; 0
 222:	40 e2       	ldi	r20, 0x20	; 32
 224:	51 e4       	ldi	r21, 0x41	; 65
 226:	c7 01       	movw	r24, r14
 228:	b6 01       	movw	r22, r12
 22a:	0e 94 ba 03 	call	0x774	; 0x774 <__gesf2>
 22e:	18 16       	cp	r1, r24
 230:	24 f4       	brge	.+8      	; 0x23a <count+0x88>
	{
		obj_present=0;
 232:	10 92 12 03 	sts	0x0312, r1	; 0x800312 <obj_present+0x1>
 236:	10 92 11 03 	sts	0x0311, r1	; 0x800311 <obj_present>
	}
}
 23a:	ff 90       	pop	r15
 23c:	ef 90       	pop	r14
 23e:	df 90       	pop	r13
 240:	cf 90       	pop	r12
 242:	08 95       	ret

00000244 <printCount>:

// printing function
void printCount(void)
{
	/* Bottom Left: START / STOP */
	OLED_SetCursor(7, 0);
 244:	60 e0       	ldi	r22, 0x00	; 0
 246:	87 e0       	ldi	r24, 0x07	; 7
 248:	0e 94 ac 01 	call	0x358	; 0x358 <OLED_SetCursor>
	if (counter_run)
 24c:	80 91 0a 03 	lds	r24, 0x030A	; 0x80030a <__data_end>
 250:	88 23       	and	r24, r24
 252:	29 f0       	breq	.+10     	; 0x25e <printCount+0x1a>
	OLED_String("  STOP ");
 254:	80 e0       	ldi	r24, 0x00	; 0
 256:	91 e0       	ldi	r25, 0x01	; 1
 258:	0e 94 54 02 	call	0x4a8	; 0x4a8 <OLED_String>
 25c:	04 c0       	rjmp	.+8      	; 0x266 <printCount+0x22>
	else
	OLED_String("  START");
 25e:	88 e0       	ldi	r24, 0x08	; 8
 260:	91 e0       	ldi	r25, 0x01	; 1
 262:	0e 94 54 02 	call	0x4a8	; 0x4a8 <OLED_String>

	/* Bottom Right: RESET */
	OLED_SetCursor(7, 90);
 266:	6a e5       	ldi	r22, 0x5A	; 90
 268:	87 e0       	ldi	r24, 0x07	; 7
 26a:	0e 94 ac 01 	call	0x358	; 0x358 <OLED_SetCursor>
	OLED_String("RESET");
 26e:	80 e1       	ldi	r24, 0x10	; 16
 270:	91 e0       	ldi	r25, 0x01	; 1
 272:	0e 94 54 02 	call	0x4a8	; 0x4a8 <OLED_String>
	
	//OLED printing
	OLED_SetCursor(0,25);
 276:	69 e1       	ldi	r22, 0x19	; 25
 278:	80 e0       	ldi	r24, 0x00	; 0
 27a:	0e 94 ac 01 	call	0x358	; 0x358 <OLED_SetCursor>
	OLED_String("Object Counter");
 27e:	86 e1       	ldi	r24, 0x16	; 22
 280:	91 e0       	ldi	r25, 0x01	; 1
 282:	0e 94 54 02 	call	0x4a8	; 0x4a8 <OLED_String>
	OLED_SetCursor(3, 65);
 286:	61 e4       	ldi	r22, 0x41	; 65
 288:	83 e0       	ldi	r24, 0x03	; 3
 28a:	0e 94 ac 01 	call	0x358	; 0x358 <OLED_SetCursor>
	sprintf(buffer,"%2d", obj_count);
 28e:	80 91 0f 03 	lds	r24, 0x030F	; 0x80030f <obj_count>
 292:	90 91 10 03 	lds	r25, 0x0310	; 0x800310 <obj_count+0x1>
 296:	9f 93       	push	r25
 298:	8f 93       	push	r24
 29a:	85 e2       	ldi	r24, 0x25	; 37
 29c:	91 e0       	ldi	r25, 0x01	; 1
 29e:	9f 93       	push	r25
 2a0:	8f 93       	push	r24
 2a2:	83 e1       	ldi	r24, 0x13	; 19
 2a4:	93 e0       	ldi	r25, 0x03	; 3
 2a6:	9f 93       	push	r25
 2a8:	8f 93       	push	r24
 2aa:	0e 94 2c 04 	call	0x858	; 0x858 <sprintf>
	OLED_String(buffer);
 2ae:	83 e1       	ldi	r24, 0x13	; 19
 2b0:	93 e0       	ldi	r25, 0x03	; 3
 2b2:	0e 94 54 02 	call	0x4a8	; 0x4a8 <OLED_String>
}
 2b6:	0f 90       	pop	r0
 2b8:	0f 90       	pop	r0
 2ba:	0f 90       	pop	r0
 2bc:	0f 90       	pop	r0
 2be:	0f 90       	pop	r0
 2c0:	0f 90       	pop	r0
 2c2:	08 95       	ret

000002c4 <main>:

int main(void)
{
	// initializations
	Button_Init();
 2c4:	0e 94 53 00 	call	0xa6	; 0xa6 <Button_Init>
	I2C_Init();
 2c8:	0e 94 ba 00 	call	0x174	; 0x174 <I2C_Init>
	hcsr04_IO_Init();
 2cc:	0e 94 88 00 	call	0x110	; 0x110 <hcsr04_IO_Init>
	OLED_Init();
 2d0:	0e 94 d3 01 	call	0x3a6	; 0x3a6 <OLED_Init>
	OLED_Clear();
 2d4:	0e 94 bd 01 	call	0x37a	; 0x37a <OLED_Clear>
	
	while (1)
	{
		if (Button_Pressed(START_STOP_BTN))
 2d8:	82 e0       	ldi	r24, 0x02	; 2
 2da:	0e 94 5a 00 	call	0xb4	; 0xb4 <Button_Pressed>
 2de:	88 23       	and	r24, r24
 2e0:	31 f0       	breq	.+12     	; 0x2ee <main+0x2a>
		{
			counter_run ^= 1;
 2e2:	90 91 0a 03 	lds	r25, 0x030A	; 0x80030a <__data_end>
 2e6:	81 e0       	ldi	r24, 0x01	; 1
 2e8:	89 27       	eor	r24, r25
 2ea:	80 93 0a 03 	sts	0x030A, r24	; 0x80030a <__data_end>
		}
		
		if (Button_Pressed(RESET_BTN))
 2ee:	83 e0       	ldi	r24, 0x03	; 3
 2f0:	0e 94 5a 00 	call	0xb4	; 0xb4 <Button_Pressed>
 2f4:	88 23       	and	r24, r24
 2f6:	31 f0       	breq	.+12     	; 0x304 <main+0x40>
		{
			counter_run = 0;
 2f8:	10 92 0a 03 	sts	0x030A, r1	; 0x80030a <__data_end>
			obj_count=0;
 2fc:	10 92 10 03 	sts	0x0310, r1	; 0x800310 <obj_count+0x1>
 300:	10 92 0f 03 	sts	0x030F, r1	; 0x80030f <obj_count>
		}
		
		if (counter_run)
 304:	80 91 0a 03 	lds	r24, 0x030A	; 0x80030a <__data_end>
 308:	81 11       	cpse	r24, r1
		{
			count();
 30a:	0e 94 d9 00 	call	0x1b2	; 0x1b2 <count>
		}
		
		printCount();
 30e:	0e 94 22 01 	call	0x244	; 0x244 <printCount>
	}
 312:	e2 cf       	rjmp	.-60     	; 0x2d8 <main+0x14>

00000314 <OLED_Command>:
	{0x00,0x00,0x5F,0x00,0x00}, // !
	// add more characters later
};

void OLED_Command(uint8_t cmd)
{
 314:	cf 93       	push	r28
 316:	c8 2f       	mov	r28, r24
	I2C_Start();
 318:	0e 94 c3 00 	call	0x186	; 0x186 <I2C_Start>
	I2C_Write(OLED_ADDR);
 31c:	88 e7       	ldi	r24, 0x78	; 120
 31e:	0e 94 cf 00 	call	0x19e	; 0x19e <I2C_Write>
	I2C_Write(0x00);   // Command mode
 322:	80 e0       	ldi	r24, 0x00	; 0
 324:	0e 94 cf 00 	call	0x19e	; 0x19e <I2C_Write>
	I2C_Write(cmd);
 328:	8c 2f       	mov	r24, r28
 32a:	0e 94 cf 00 	call	0x19e	; 0x19e <I2C_Write>
	I2C_Stop();
 32e:	0e 94 cb 00 	call	0x196	; 0x196 <I2C_Stop>
}
 332:	cf 91       	pop	r28
 334:	08 95       	ret

00000336 <OLED_Data>:

void OLED_Data(uint8_t data)
{
 336:	cf 93       	push	r28
 338:	c8 2f       	mov	r28, r24
	I2C_Start();
 33a:	0e 94 c3 00 	call	0x186	; 0x186 <I2C_Start>
	I2C_Write(OLED_ADDR);
 33e:	88 e7       	ldi	r24, 0x78	; 120
 340:	0e 94 cf 00 	call	0x19e	; 0x19e <I2C_Write>
	I2C_Write(0x40);   // Data mode
 344:	80 e4       	ldi	r24, 0x40	; 64
 346:	0e 94 cf 00 	call	0x19e	; 0x19e <I2C_Write>
	I2C_Write(data);
 34a:	8c 2f       	mov	r24, r28
 34c:	0e 94 cf 00 	call	0x19e	; 0x19e <I2C_Write>
	I2C_Stop();
 350:	0e 94 cb 00 	call	0x196	; 0x196 <I2C_Stop>
}
 354:	cf 91       	pop	r28
 356:	08 95       	ret

00000358 <OLED_SetCursor>:
		OLED_Data(0x00);
	}
}

void OLED_SetCursor(uint8_t page, uint8_t col)
{
 358:	cf 93       	push	r28
 35a:	c6 2f       	mov	r28, r22
	OLED_Command(0xB0 + page);
 35c:	80 55       	subi	r24, 0x50	; 80
 35e:	0e 94 8a 01 	call	0x314	; 0x314 <OLED_Command>
	OLED_Command(0x00 + (col & 0x0F));
 362:	8c 2f       	mov	r24, r28
 364:	8f 70       	andi	r24, 0x0F	; 15
 366:	0e 94 8a 01 	call	0x314	; 0x314 <OLED_Command>
	OLED_Command(0x10 + (col >> 4));
 36a:	8c 2f       	mov	r24, r28
 36c:	82 95       	swap	r24
 36e:	8f 70       	andi	r24, 0x0F	; 15
 370:	80 5f       	subi	r24, 0xF0	; 240
 372:	0e 94 8a 01 	call	0x314	; 0x314 <OLED_Command>
}
 376:	cf 91       	pop	r28
 378:	08 95       	ret

0000037a <OLED_Clear>:

	OLED_Clear();
}

void OLED_Clear(void)
{
 37a:	cf 93       	push	r28
 37c:	df 93       	push	r29
	for (uint8_t page = 0; page < 8; page++)
 37e:	d0 e0       	ldi	r29, 0x00	; 0
 380:	0d c0       	rjmp	.+26     	; 0x39c <OLED_Clear+0x22>
	{
		OLED_SetCursor(page, 0);
 382:	60 e0       	ldi	r22, 0x00	; 0
 384:	8d 2f       	mov	r24, r29
 386:	0e 94 ac 01 	call	0x358	; 0x358 <OLED_SetCursor>
		for (uint8_t col = 0; col < 128; col++)
 38a:	c0 e0       	ldi	r28, 0x00	; 0
 38c:	04 c0       	rjmp	.+8      	; 0x396 <OLED_Clear+0x1c>
		OLED_Data(0x00);
 38e:	80 e0       	ldi	r24, 0x00	; 0
 390:	0e 94 9b 01 	call	0x336	; 0x336 <OLED_Data>
void OLED_Clear(void)
{
	for (uint8_t page = 0; page < 8; page++)
	{
		OLED_SetCursor(page, 0);
		for (uint8_t col = 0; col < 128; col++)
 394:	cf 5f       	subi	r28, 0xFF	; 255
 396:	cc 23       	and	r28, r28
 398:	d4 f7       	brge	.-12     	; 0x38e <OLED_Clear+0x14>
	OLED_Clear();
}

void OLED_Clear(void)
{
	for (uint8_t page = 0; page < 8; page++)
 39a:	df 5f       	subi	r29, 0xFF	; 255
 39c:	d8 30       	cpi	r29, 0x08	; 8
 39e:	88 f3       	brcs	.-30     	; 0x382 <OLED_Clear+0x8>
	{
		OLED_SetCursor(page, 0);
		for (uint8_t col = 0; col < 128; col++)
		OLED_Data(0x00);
	}
}
 3a0:	df 91       	pop	r29
 3a2:	cf 91       	pop	r28
 3a4:	08 95       	ret

000003a6 <OLED_Init>:
	#else
		//round up by default
		__ticks_dc = (uint32_t)(ceil(fabs(__tmp)));
	#endif

	__builtin_avr_delay_cycles(__ticks_dc);
 3a6:	2f ef       	ldi	r18, 0xFF	; 255
 3a8:	81 ee       	ldi	r24, 0xE1	; 225
 3aa:	94 e0       	ldi	r25, 0x04	; 4
 3ac:	21 50       	subi	r18, 0x01	; 1
 3ae:	80 40       	sbci	r24, 0x00	; 0
 3b0:	90 40       	sbci	r25, 0x00	; 0
 3b2:	e1 f7       	brne	.-8      	; 0x3ac <OLED_Init+0x6>
 3b4:	00 c0       	rjmp	.+0      	; 0x3b6 <OLED_Init+0x10>
 3b6:	00 00       	nop

void OLED_Init(void)
{
	_delay_ms(100);

	OLED_Command(0xAE); // Display OFF
 3b8:	8e ea       	ldi	r24, 0xAE	; 174
 3ba:	0e 94 8a 01 	call	0x314	; 0x314 <OLED_Command>
	OLED_Command(0x20); // Memory mode
 3be:	80 e2       	ldi	r24, 0x20	; 32
 3c0:	0e 94 8a 01 	call	0x314	; 0x314 <OLED_Command>
	OLED_Command(0x00);
 3c4:	80 e0       	ldi	r24, 0x00	; 0
 3c6:	0e 94 8a 01 	call	0x314	; 0x314 <OLED_Command>
	OLED_Command(0xB0); // Page 0
 3ca:	80 eb       	ldi	r24, 0xB0	; 176
 3cc:	0e 94 8a 01 	call	0x314	; 0x314 <OLED_Command>
	OLED_Command(0xC8);
 3d0:	88 ec       	ldi	r24, 0xC8	; 200
 3d2:	0e 94 8a 01 	call	0x314	; 0x314 <OLED_Command>
	OLED_Command(0x00);
 3d6:	80 e0       	ldi	r24, 0x00	; 0
 3d8:	0e 94 8a 01 	call	0x314	; 0x314 <OLED_Command>
	OLED_Command(0x10);
 3dc:	80 e1       	ldi	r24, 0x10	; 16
 3de:	0e 94 8a 01 	call	0x314	; 0x314 <OLED_Command>
	OLED_Command(0x40);
 3e2:	80 e4       	ldi	r24, 0x40	; 64
 3e4:	0e 94 8a 01 	call	0x314	; 0x314 <OLED_Command>
	OLED_Command(0x81);
 3e8:	81 e8       	ldi	r24, 0x81	; 129
 3ea:	0e 94 8a 01 	call	0x314	; 0x314 <OLED_Command>
	OLED_Command(0x7F);
 3ee:	8f e7       	ldi	r24, 0x7F	; 127
 3f0:	0e 94 8a 01 	call	0x314	; 0x314 <OLED_Command>
	OLED_Command(0xA1);
 3f4:	81 ea       	ldi	r24, 0xA1	; 161
 3f6:	0e 94 8a 01 	call	0x314	; 0x314 <OLED_Command>
	OLED_Command(0xA6);
 3fa:	86 ea       	ldi	r24, 0xA6	; 166
 3fc:	0e 94 8a 01 	call	0x314	; 0x314 <OLED_Command>
	OLED_Command(0xA8);
 400:	88 ea       	ldi	r24, 0xA8	; 168
 402:	0e 94 8a 01 	call	0x314	; 0x314 <OLED_Command>
	OLED_Command(0x3F);
 406:	8f e3       	ldi	r24, 0x3F	; 63
 408:	0e 94 8a 01 	call	0x314	; 0x314 <OLED_Command>
	OLED_Command(0xA4);
 40c:	84 ea       	ldi	r24, 0xA4	; 164
 40e:	0e 94 8a 01 	call	0x314	; 0x314 <OLED_Command>
	OLED_Command(0xD3);
 412:	83 ed       	ldi	r24, 0xD3	; 211
 414:	0e 94 8a 01 	call	0x314	; 0x314 <OLED_Command>
	OLED_Command(0x00);
 418:	80 e0       	ldi	r24, 0x00	; 0
 41a:	0e 94 8a 01 	call	0x314	; 0x314 <OLED_Command>
	OLED_Command(0xD5);
 41e:	85 ed       	ldi	r24, 0xD5	; 213
 420:	0e 94 8a 01 	call	0x314	; 0x314 <OLED_Command>
	OLED_Command(0x80);
 424:	80 e8       	ldi	r24, 0x80	; 128
 426:	0e 94 8a 01 	call	0x314	; 0x314 <OLED_Command>
	OLED_Command(0xD9);
 42a:	89 ed       	ldi	r24, 0xD9	; 217
 42c:	0e 94 8a 01 	call	0x314	; 0x314 <OLED_Command>
	OLED_Command(0xF1);
 430:	81 ef       	ldi	r24, 0xF1	; 241
 432:	0e 94 8a 01 	call	0x314	; 0x314 <OLED_Command>
	OLED_Command(0xDA);
 436:	8a ed       	ldi	r24, 0xDA	; 218
 438:	0e 94 8a 01 	call	0x314	; 0x314 <OLED_Command>
	OLED_Command(0x12);
 43c:	82 e1       	ldi	r24, 0x12	; 18
 43e:	0e 94 8a 01 	call	0x314	; 0x314 <OLED_Command>
	OLED_Command(0xDB);
 442:	8b ed       	ldi	r24, 0xDB	; 219
 444:	0e 94 8a 01 	call	0x314	; 0x314 <OLED_Command>
	OLED_Command(0x40);
 448:	80 e4       	ldi	r24, 0x40	; 64
 44a:	0e 94 8a 01 	call	0x314	; 0x314 <OLED_Command>
	OLED_Command(0x8D);
 44e:	8d e8       	ldi	r24, 0x8D	; 141
 450:	0e 94 8a 01 	call	0x314	; 0x314 <OLED_Command>
	OLED_Command(0x14);
 454:	84 e1       	ldi	r24, 0x14	; 20
 456:	0e 94 8a 01 	call	0x314	; 0x314 <OLED_Command>
	OLED_Command(0xAF); // Display ON
 45a:	8f ea       	ldi	r24, 0xAF	; 175
 45c:	0e 94 8a 01 	call	0x314	; 0x314 <OLED_Command>

	OLED_Clear();
 460:	0e 94 bd 01 	call	0x37a	; 0x37a <OLED_Clear>
 464:	08 95       	ret

00000466 <OLED_Char>:
	OLED_Command(0x00 + (col & 0x0F));
	OLED_Command(0x10 + (col >> 4));
}

void OLED_Char(char c)
{
 466:	cf 93       	push	r28
 468:	df 93       	push	r29
	if (c < 32 || c > 126) return; // ignore out of range
 46a:	d0 ee       	ldi	r29, 0xE0	; 224
 46c:	d8 0f       	add	r29, r24
 46e:	df 35       	cpi	r29, 0x5F	; 95
 470:	c0 f4       	brcc	.+48     	; 0x4a2 <OLED_Char+0x3c>
 472:	c0 e0       	ldi	r28, 0x00	; 0
 474:	11 c0       	rjmp	.+34     	; 0x498 <OLED_Char+0x32>
	c -= 32;                       // font starts at space

	for (uint8_t i = 0; i < 5; i++)
	OLED_Data(Font5x7[(uint8_t)c][i]);
 476:	8d 2f       	mov	r24, r29
 478:	90 e0       	ldi	r25, 0x00	; 0
 47a:	fc 01       	movw	r30, r24
 47c:	ee 0f       	add	r30, r30
 47e:	ff 1f       	adc	r31, r31
 480:	ee 0f       	add	r30, r30
 482:	ff 1f       	adc	r31, r31
 484:	e8 0f       	add	r30, r24
 486:	f9 1f       	adc	r31, r25
 488:	e7 5d       	subi	r30, 0xD7	; 215
 48a:	fe 4f       	sbci	r31, 0xFE	; 254
 48c:	ec 0f       	add	r30, r28
 48e:	f1 1d       	adc	r31, r1
 490:	80 81       	ld	r24, Z
 492:	0e 94 9b 01 	call	0x336	; 0x336 <OLED_Data>
void OLED_Char(char c)
{
	if (c < 32 || c > 126) return; // ignore out of range
	c -= 32;                       // font starts at space

	for (uint8_t i = 0; i < 5; i++)
 496:	cf 5f       	subi	r28, 0xFF	; 255
 498:	c5 30       	cpi	r28, 0x05	; 5
 49a:	68 f3       	brcs	.-38     	; 0x476 <OLED_Char+0x10>
	OLED_Data(Font5x7[(uint8_t)c][i]);

	OLED_Data(0x00); // spacing column
 49c:	80 e0       	ldi	r24, 0x00	; 0
 49e:	0e 94 9b 01 	call	0x336	; 0x336 <OLED_Data>
}
 4a2:	df 91       	pop	r29
 4a4:	cf 91       	pop	r28
 4a6:	08 95       	ret

000004a8 <OLED_String>:


void OLED_String(char *str)
{
 4a8:	cf 93       	push	r28
 4aa:	df 93       	push	r29
 4ac:	ec 01       	movw	r28, r24
	while (*str)
 4ae:	03 c0       	rjmp	.+6      	; 0x4b6 <OLED_String+0xe>
	OLED_Char(*str++);
 4b0:	21 96       	adiw	r28, 0x01	; 1
 4b2:	0e 94 33 02 	call	0x466	; 0x466 <OLED_Char>
}


void OLED_String(char *str)
{
	while (*str)
 4b6:	88 81       	ld	r24, Y
 4b8:	81 11       	cpse	r24, r1
 4ba:	fa cf       	rjmp	.-12     	; 0x4b0 <OLED_String+0x8>
	OLED_Char(*str++);
}
 4bc:	df 91       	pop	r29
 4be:	cf 91       	pop	r28
 4c0:	08 95       	ret

000004c2 <__subsf3>:
 4c2:	50 58       	subi	r21, 0x80	; 128

000004c4 <__addsf3>:
 4c4:	bb 27       	eor	r27, r27
 4c6:	aa 27       	eor	r26, r26
 4c8:	0e 94 79 02 	call	0x4f2	; 0x4f2 <__addsf3x>
 4cc:	0c 94 80 03 	jmp	0x700	; 0x700 <__fp_round>
 4d0:	0e 94 72 03 	call	0x6e4	; 0x6e4 <__fp_pscA>
 4d4:	38 f0       	brcs	.+14     	; 0x4e4 <__addsf3+0x20>
 4d6:	0e 94 79 03 	call	0x6f2	; 0x6f2 <__fp_pscB>
 4da:	20 f0       	brcs	.+8      	; 0x4e4 <__addsf3+0x20>
 4dc:	39 f4       	brne	.+14     	; 0x4ec <__addsf3+0x28>
 4de:	9f 3f       	cpi	r25, 0xFF	; 255
 4e0:	19 f4       	brne	.+6      	; 0x4e8 <__addsf3+0x24>
 4e2:	26 f4       	brtc	.+8      	; 0x4ec <__addsf3+0x28>
 4e4:	0c 94 6f 03 	jmp	0x6de	; 0x6de <__fp_nan>
 4e8:	0e f4       	brtc	.+2      	; 0x4ec <__addsf3+0x28>
 4ea:	e0 95       	com	r30
 4ec:	e7 fb       	bst	r30, 7
 4ee:	0c 94 69 03 	jmp	0x6d2	; 0x6d2 <__fp_inf>

000004f2 <__addsf3x>:
 4f2:	e9 2f       	mov	r30, r25
 4f4:	0e 94 91 03 	call	0x722	; 0x722 <__fp_split3>
 4f8:	58 f3       	brcs	.-42     	; 0x4d0 <__addsf3+0xc>
 4fa:	ba 17       	cp	r27, r26
 4fc:	62 07       	cpc	r22, r18
 4fe:	73 07       	cpc	r23, r19
 500:	84 07       	cpc	r24, r20
 502:	95 07       	cpc	r25, r21
 504:	20 f0       	brcs	.+8      	; 0x50e <__addsf3x+0x1c>
 506:	79 f4       	brne	.+30     	; 0x526 <__addsf3x+0x34>
 508:	a6 f5       	brtc	.+104    	; 0x572 <__addsf3x+0x80>
 50a:	0c 94 b3 03 	jmp	0x766	; 0x766 <__fp_zero>
 50e:	0e f4       	brtc	.+2      	; 0x512 <__addsf3x+0x20>
 510:	e0 95       	com	r30
 512:	0b 2e       	mov	r0, r27
 514:	ba 2f       	mov	r27, r26
 516:	a0 2d       	mov	r26, r0
 518:	0b 01       	movw	r0, r22
 51a:	b9 01       	movw	r22, r18
 51c:	90 01       	movw	r18, r0
 51e:	0c 01       	movw	r0, r24
 520:	ca 01       	movw	r24, r20
 522:	a0 01       	movw	r20, r0
 524:	11 24       	eor	r1, r1
 526:	ff 27       	eor	r31, r31
 528:	59 1b       	sub	r21, r25
 52a:	99 f0       	breq	.+38     	; 0x552 <__addsf3x+0x60>
 52c:	59 3f       	cpi	r21, 0xF9	; 249
 52e:	50 f4       	brcc	.+20     	; 0x544 <__addsf3x+0x52>
 530:	50 3e       	cpi	r21, 0xE0	; 224
 532:	68 f1       	brcs	.+90     	; 0x58e <__addsf3x+0x9c>
 534:	1a 16       	cp	r1, r26
 536:	f0 40       	sbci	r31, 0x00	; 0
 538:	a2 2f       	mov	r26, r18
 53a:	23 2f       	mov	r18, r19
 53c:	34 2f       	mov	r19, r20
 53e:	44 27       	eor	r20, r20
 540:	58 5f       	subi	r21, 0xF8	; 248
 542:	f3 cf       	rjmp	.-26     	; 0x52a <__addsf3x+0x38>
 544:	46 95       	lsr	r20
 546:	37 95       	ror	r19
 548:	27 95       	ror	r18
 54a:	a7 95       	ror	r26
 54c:	f0 40       	sbci	r31, 0x00	; 0
 54e:	53 95       	inc	r21
 550:	c9 f7       	brne	.-14     	; 0x544 <__addsf3x+0x52>
 552:	7e f4       	brtc	.+30     	; 0x572 <__addsf3x+0x80>
 554:	1f 16       	cp	r1, r31
 556:	ba 0b       	sbc	r27, r26
 558:	62 0b       	sbc	r22, r18
 55a:	73 0b       	sbc	r23, r19
 55c:	84 0b       	sbc	r24, r20
 55e:	ba f0       	brmi	.+46     	; 0x58e <__addsf3x+0x9c>
 560:	91 50       	subi	r25, 0x01	; 1
 562:	a1 f0       	breq	.+40     	; 0x58c <__addsf3x+0x9a>
 564:	ff 0f       	add	r31, r31
 566:	bb 1f       	adc	r27, r27
 568:	66 1f       	adc	r22, r22
 56a:	77 1f       	adc	r23, r23
 56c:	88 1f       	adc	r24, r24
 56e:	c2 f7       	brpl	.-16     	; 0x560 <__addsf3x+0x6e>
 570:	0e c0       	rjmp	.+28     	; 0x58e <__addsf3x+0x9c>
 572:	ba 0f       	add	r27, r26
 574:	62 1f       	adc	r22, r18
 576:	73 1f       	adc	r23, r19
 578:	84 1f       	adc	r24, r20
 57a:	48 f4       	brcc	.+18     	; 0x58e <__addsf3x+0x9c>
 57c:	87 95       	ror	r24
 57e:	77 95       	ror	r23
 580:	67 95       	ror	r22
 582:	b7 95       	ror	r27
 584:	f7 95       	ror	r31
 586:	9e 3f       	cpi	r25, 0xFE	; 254
 588:	08 f0       	brcs	.+2      	; 0x58c <__addsf3x+0x9a>
 58a:	b0 cf       	rjmp	.-160    	; 0x4ec <__addsf3+0x28>
 58c:	93 95       	inc	r25
 58e:	88 0f       	add	r24, r24
 590:	08 f0       	brcs	.+2      	; 0x594 <__addsf3x+0xa2>
 592:	99 27       	eor	r25, r25
 594:	ee 0f       	add	r30, r30
 596:	97 95       	ror	r25
 598:	87 95       	ror	r24
 59a:	08 95       	ret

0000059c <__cmpsf2>:
 59c:	0e 94 45 03 	call	0x68a	; 0x68a <__fp_cmp>
 5a0:	08 f4       	brcc	.+2      	; 0x5a4 <__cmpsf2+0x8>
 5a2:	81 e0       	ldi	r24, 0x01	; 1
 5a4:	08 95       	ret

000005a6 <__divsf3>:
 5a6:	0e 94 e7 02 	call	0x5ce	; 0x5ce <__divsf3x>
 5aa:	0c 94 80 03 	jmp	0x700	; 0x700 <__fp_round>
 5ae:	0e 94 79 03 	call	0x6f2	; 0x6f2 <__fp_pscB>
 5b2:	58 f0       	brcs	.+22     	; 0x5ca <__divsf3+0x24>
 5b4:	0e 94 72 03 	call	0x6e4	; 0x6e4 <__fp_pscA>
 5b8:	40 f0       	brcs	.+16     	; 0x5ca <__divsf3+0x24>
 5ba:	29 f4       	brne	.+10     	; 0x5c6 <__divsf3+0x20>
 5bc:	5f 3f       	cpi	r21, 0xFF	; 255
 5be:	29 f0       	breq	.+10     	; 0x5ca <__divsf3+0x24>
 5c0:	0c 94 69 03 	jmp	0x6d2	; 0x6d2 <__fp_inf>
 5c4:	51 11       	cpse	r21, r1
 5c6:	0c 94 b4 03 	jmp	0x768	; 0x768 <__fp_szero>
 5ca:	0c 94 6f 03 	jmp	0x6de	; 0x6de <__fp_nan>

000005ce <__divsf3x>:
 5ce:	0e 94 91 03 	call	0x722	; 0x722 <__fp_split3>
 5d2:	68 f3       	brcs	.-38     	; 0x5ae <__divsf3+0x8>

000005d4 <__divsf3_pse>:
 5d4:	99 23       	and	r25, r25
 5d6:	b1 f3       	breq	.-20     	; 0x5c4 <__divsf3+0x1e>
 5d8:	55 23       	and	r21, r21
 5da:	91 f3       	breq	.-28     	; 0x5c0 <__divsf3+0x1a>
 5dc:	95 1b       	sub	r25, r21
 5de:	55 0b       	sbc	r21, r21
 5e0:	bb 27       	eor	r27, r27
 5e2:	aa 27       	eor	r26, r26
 5e4:	62 17       	cp	r22, r18
 5e6:	73 07       	cpc	r23, r19
 5e8:	84 07       	cpc	r24, r20
 5ea:	38 f0       	brcs	.+14     	; 0x5fa <__divsf3_pse+0x26>
 5ec:	9f 5f       	subi	r25, 0xFF	; 255
 5ee:	5f 4f       	sbci	r21, 0xFF	; 255
 5f0:	22 0f       	add	r18, r18
 5f2:	33 1f       	adc	r19, r19
 5f4:	44 1f       	adc	r20, r20
 5f6:	aa 1f       	adc	r26, r26
 5f8:	a9 f3       	breq	.-22     	; 0x5e4 <__divsf3_pse+0x10>
 5fa:	35 d0       	rcall	.+106    	; 0x666 <__divsf3_pse+0x92>
 5fc:	0e 2e       	mov	r0, r30
 5fe:	3a f0       	brmi	.+14     	; 0x60e <__divsf3_pse+0x3a>
 600:	e0 e8       	ldi	r30, 0x80	; 128
 602:	32 d0       	rcall	.+100    	; 0x668 <__divsf3_pse+0x94>
 604:	91 50       	subi	r25, 0x01	; 1
 606:	50 40       	sbci	r21, 0x00	; 0
 608:	e6 95       	lsr	r30
 60a:	00 1c       	adc	r0, r0
 60c:	ca f7       	brpl	.-14     	; 0x600 <__divsf3_pse+0x2c>
 60e:	2b d0       	rcall	.+86     	; 0x666 <__divsf3_pse+0x92>
 610:	fe 2f       	mov	r31, r30
 612:	29 d0       	rcall	.+82     	; 0x666 <__divsf3_pse+0x92>
 614:	66 0f       	add	r22, r22
 616:	77 1f       	adc	r23, r23
 618:	88 1f       	adc	r24, r24
 61a:	bb 1f       	adc	r27, r27
 61c:	26 17       	cp	r18, r22
 61e:	37 07       	cpc	r19, r23
 620:	48 07       	cpc	r20, r24
 622:	ab 07       	cpc	r26, r27
 624:	b0 e8       	ldi	r27, 0x80	; 128
 626:	09 f0       	breq	.+2      	; 0x62a <__divsf3_pse+0x56>
 628:	bb 0b       	sbc	r27, r27
 62a:	80 2d       	mov	r24, r0
 62c:	bf 01       	movw	r22, r30
 62e:	ff 27       	eor	r31, r31
 630:	93 58       	subi	r25, 0x83	; 131
 632:	5f 4f       	sbci	r21, 0xFF	; 255
 634:	3a f0       	brmi	.+14     	; 0x644 <__divsf3_pse+0x70>
 636:	9e 3f       	cpi	r25, 0xFE	; 254
 638:	51 05       	cpc	r21, r1
 63a:	78 f0       	brcs	.+30     	; 0x65a <__divsf3_pse+0x86>
 63c:	0c 94 69 03 	jmp	0x6d2	; 0x6d2 <__fp_inf>
 640:	0c 94 b4 03 	jmp	0x768	; 0x768 <__fp_szero>
 644:	5f 3f       	cpi	r21, 0xFF	; 255
 646:	e4 f3       	brlt	.-8      	; 0x640 <__divsf3_pse+0x6c>
 648:	98 3e       	cpi	r25, 0xE8	; 232
 64a:	d4 f3       	brlt	.-12     	; 0x640 <__divsf3_pse+0x6c>
 64c:	86 95       	lsr	r24
 64e:	77 95       	ror	r23
 650:	67 95       	ror	r22
 652:	b7 95       	ror	r27
 654:	f7 95       	ror	r31
 656:	9f 5f       	subi	r25, 0xFF	; 255
 658:	c9 f7       	brne	.-14     	; 0x64c <__divsf3_pse+0x78>
 65a:	88 0f       	add	r24, r24
 65c:	91 1d       	adc	r25, r1
 65e:	96 95       	lsr	r25
 660:	87 95       	ror	r24
 662:	97 f9       	bld	r25, 7
 664:	08 95       	ret
 666:	e1 e0       	ldi	r30, 0x01	; 1
 668:	66 0f       	add	r22, r22
 66a:	77 1f       	adc	r23, r23
 66c:	88 1f       	adc	r24, r24
 66e:	bb 1f       	adc	r27, r27
 670:	62 17       	cp	r22, r18
 672:	73 07       	cpc	r23, r19
 674:	84 07       	cpc	r24, r20
 676:	ba 07       	cpc	r27, r26
 678:	20 f0       	brcs	.+8      	; 0x682 <__divsf3_pse+0xae>
 67a:	62 1b       	sub	r22, r18
 67c:	73 0b       	sbc	r23, r19
 67e:	84 0b       	sbc	r24, r20
 680:	ba 0b       	sbc	r27, r26
 682:	ee 1f       	adc	r30, r30
 684:	88 f7       	brcc	.-30     	; 0x668 <__divsf3_pse+0x94>
 686:	e0 95       	com	r30
 688:	08 95       	ret

0000068a <__fp_cmp>:
 68a:	99 0f       	add	r25, r25
 68c:	00 08       	sbc	r0, r0
 68e:	55 0f       	add	r21, r21
 690:	aa 0b       	sbc	r26, r26
 692:	e0 e8       	ldi	r30, 0x80	; 128
 694:	fe ef       	ldi	r31, 0xFE	; 254
 696:	16 16       	cp	r1, r22
 698:	17 06       	cpc	r1, r23
 69a:	e8 07       	cpc	r30, r24
 69c:	f9 07       	cpc	r31, r25
 69e:	c0 f0       	brcs	.+48     	; 0x6d0 <__fp_cmp+0x46>
 6a0:	12 16       	cp	r1, r18
 6a2:	13 06       	cpc	r1, r19
 6a4:	e4 07       	cpc	r30, r20
 6a6:	f5 07       	cpc	r31, r21
 6a8:	98 f0       	brcs	.+38     	; 0x6d0 <__fp_cmp+0x46>
 6aa:	62 1b       	sub	r22, r18
 6ac:	73 0b       	sbc	r23, r19
 6ae:	84 0b       	sbc	r24, r20
 6b0:	95 0b       	sbc	r25, r21
 6b2:	39 f4       	brne	.+14     	; 0x6c2 <__fp_cmp+0x38>
 6b4:	0a 26       	eor	r0, r26
 6b6:	61 f0       	breq	.+24     	; 0x6d0 <__fp_cmp+0x46>
 6b8:	23 2b       	or	r18, r19
 6ba:	24 2b       	or	r18, r20
 6bc:	25 2b       	or	r18, r21
 6be:	21 f4       	brne	.+8      	; 0x6c8 <__fp_cmp+0x3e>
 6c0:	08 95       	ret
 6c2:	0a 26       	eor	r0, r26
 6c4:	09 f4       	brne	.+2      	; 0x6c8 <__fp_cmp+0x3e>
 6c6:	a1 40       	sbci	r26, 0x01	; 1
 6c8:	a6 95       	lsr	r26
 6ca:	8f ef       	ldi	r24, 0xFF	; 255
 6cc:	81 1d       	adc	r24, r1
 6ce:	81 1d       	adc	r24, r1
 6d0:	08 95       	ret

000006d2 <__fp_inf>:
 6d2:	97 f9       	bld	r25, 7
 6d4:	9f 67       	ori	r25, 0x7F	; 127
 6d6:	80 e8       	ldi	r24, 0x80	; 128
 6d8:	70 e0       	ldi	r23, 0x00	; 0
 6da:	60 e0       	ldi	r22, 0x00	; 0
 6dc:	08 95       	ret

000006de <__fp_nan>:
 6de:	9f ef       	ldi	r25, 0xFF	; 255
 6e0:	80 ec       	ldi	r24, 0xC0	; 192
 6e2:	08 95       	ret

000006e4 <__fp_pscA>:
 6e4:	00 24       	eor	r0, r0
 6e6:	0a 94       	dec	r0
 6e8:	16 16       	cp	r1, r22
 6ea:	17 06       	cpc	r1, r23
 6ec:	18 06       	cpc	r1, r24
 6ee:	09 06       	cpc	r0, r25
 6f0:	08 95       	ret

000006f2 <__fp_pscB>:
 6f2:	00 24       	eor	r0, r0
 6f4:	0a 94       	dec	r0
 6f6:	12 16       	cp	r1, r18
 6f8:	13 06       	cpc	r1, r19
 6fa:	14 06       	cpc	r1, r20
 6fc:	05 06       	cpc	r0, r21
 6fe:	08 95       	ret

00000700 <__fp_round>:
 700:	09 2e       	mov	r0, r25
 702:	03 94       	inc	r0
 704:	00 0c       	add	r0, r0
 706:	11 f4       	brne	.+4      	; 0x70c <__fp_round+0xc>
 708:	88 23       	and	r24, r24
 70a:	52 f0       	brmi	.+20     	; 0x720 <__fp_round+0x20>
 70c:	bb 0f       	add	r27, r27
 70e:	40 f4       	brcc	.+16     	; 0x720 <__fp_round+0x20>
 710:	bf 2b       	or	r27, r31
 712:	11 f4       	brne	.+4      	; 0x718 <__fp_round+0x18>
 714:	60 ff       	sbrs	r22, 0
 716:	04 c0       	rjmp	.+8      	; 0x720 <__fp_round+0x20>
 718:	6f 5f       	subi	r22, 0xFF	; 255
 71a:	7f 4f       	sbci	r23, 0xFF	; 255
 71c:	8f 4f       	sbci	r24, 0xFF	; 255
 71e:	9f 4f       	sbci	r25, 0xFF	; 255
 720:	08 95       	ret

00000722 <__fp_split3>:
 722:	57 fd       	sbrc	r21, 7
 724:	90 58       	subi	r25, 0x80	; 128
 726:	44 0f       	add	r20, r20
 728:	55 1f       	adc	r21, r21
 72a:	59 f0       	breq	.+22     	; 0x742 <__fp_splitA+0x10>
 72c:	5f 3f       	cpi	r21, 0xFF	; 255
 72e:	71 f0       	breq	.+28     	; 0x74c <__fp_splitA+0x1a>
 730:	47 95       	ror	r20

00000732 <__fp_splitA>:
 732:	88 0f       	add	r24, r24
 734:	97 fb       	bst	r25, 7
 736:	99 1f       	adc	r25, r25
 738:	61 f0       	breq	.+24     	; 0x752 <__fp_splitA+0x20>
 73a:	9f 3f       	cpi	r25, 0xFF	; 255
 73c:	79 f0       	breq	.+30     	; 0x75c <__fp_splitA+0x2a>
 73e:	87 95       	ror	r24
 740:	08 95       	ret
 742:	12 16       	cp	r1, r18
 744:	13 06       	cpc	r1, r19
 746:	14 06       	cpc	r1, r20
 748:	55 1f       	adc	r21, r21
 74a:	f2 cf       	rjmp	.-28     	; 0x730 <__fp_split3+0xe>
 74c:	46 95       	lsr	r20
 74e:	f1 df       	rcall	.-30     	; 0x732 <__fp_splitA>
 750:	08 c0       	rjmp	.+16     	; 0x762 <__fp_splitA+0x30>
 752:	16 16       	cp	r1, r22
 754:	17 06       	cpc	r1, r23
 756:	18 06       	cpc	r1, r24
 758:	99 1f       	adc	r25, r25
 75a:	f1 cf       	rjmp	.-30     	; 0x73e <__fp_splitA+0xc>
 75c:	86 95       	lsr	r24
 75e:	71 05       	cpc	r23, r1
 760:	61 05       	cpc	r22, r1
 762:	08 94       	sec
 764:	08 95       	ret

00000766 <__fp_zero>:
 766:	e8 94       	clt

00000768 <__fp_szero>:
 768:	bb 27       	eor	r27, r27
 76a:	66 27       	eor	r22, r22
 76c:	77 27       	eor	r23, r23
 76e:	cb 01       	movw	r24, r22
 770:	97 f9       	bld	r25, 7
 772:	08 95       	ret

00000774 <__gesf2>:
 774:	0e 94 45 03 	call	0x68a	; 0x68a <__fp_cmp>
 778:	08 f4       	brcc	.+2      	; 0x77c <__gesf2+0x8>
 77a:	8f ef       	ldi	r24, 0xFF	; 255
 77c:	08 95       	ret

0000077e <__mulsf3>:
 77e:	0e 94 d2 03 	call	0x7a4	; 0x7a4 <__mulsf3x>
 782:	0c 94 80 03 	jmp	0x700	; 0x700 <__fp_round>
 786:	0e 94 72 03 	call	0x6e4	; 0x6e4 <__fp_pscA>
 78a:	38 f0       	brcs	.+14     	; 0x79a <__mulsf3+0x1c>
 78c:	0e 94 79 03 	call	0x6f2	; 0x6f2 <__fp_pscB>
 790:	20 f0       	brcs	.+8      	; 0x79a <__mulsf3+0x1c>
 792:	95 23       	and	r25, r21
 794:	11 f0       	breq	.+4      	; 0x79a <__mulsf3+0x1c>
 796:	0c 94 69 03 	jmp	0x6d2	; 0x6d2 <__fp_inf>
 79a:	0c 94 6f 03 	jmp	0x6de	; 0x6de <__fp_nan>
 79e:	11 24       	eor	r1, r1
 7a0:	0c 94 b4 03 	jmp	0x768	; 0x768 <__fp_szero>

000007a4 <__mulsf3x>:
 7a4:	0e 94 91 03 	call	0x722	; 0x722 <__fp_split3>
 7a8:	70 f3       	brcs	.-36     	; 0x786 <__mulsf3+0x8>

000007aa <__mulsf3_pse>:
 7aa:	95 9f       	mul	r25, r21
 7ac:	c1 f3       	breq	.-16     	; 0x79e <__mulsf3+0x20>
 7ae:	95 0f       	add	r25, r21
 7b0:	50 e0       	ldi	r21, 0x00	; 0
 7b2:	55 1f       	adc	r21, r21
 7b4:	62 9f       	mul	r22, r18
 7b6:	f0 01       	movw	r30, r0
 7b8:	72 9f       	mul	r23, r18
 7ba:	bb 27       	eor	r27, r27
 7bc:	f0 0d       	add	r31, r0
 7be:	b1 1d       	adc	r27, r1
 7c0:	63 9f       	mul	r22, r19
 7c2:	aa 27       	eor	r26, r26
 7c4:	f0 0d       	add	r31, r0
 7c6:	b1 1d       	adc	r27, r1
 7c8:	aa 1f       	adc	r26, r26
 7ca:	64 9f       	mul	r22, r20
 7cc:	66 27       	eor	r22, r22
 7ce:	b0 0d       	add	r27, r0
 7d0:	a1 1d       	adc	r26, r1
 7d2:	66 1f       	adc	r22, r22
 7d4:	82 9f       	mul	r24, r18
 7d6:	22 27       	eor	r18, r18
 7d8:	b0 0d       	add	r27, r0
 7da:	a1 1d       	adc	r26, r1
 7dc:	62 1f       	adc	r22, r18
 7de:	73 9f       	mul	r23, r19
 7e0:	b0 0d       	add	r27, r0
 7e2:	a1 1d       	adc	r26, r1
 7e4:	62 1f       	adc	r22, r18
 7e6:	83 9f       	mul	r24, r19
 7e8:	a0 0d       	add	r26, r0
 7ea:	61 1d       	adc	r22, r1
 7ec:	22 1f       	adc	r18, r18
 7ee:	74 9f       	mul	r23, r20
 7f0:	33 27       	eor	r19, r19
 7f2:	a0 0d       	add	r26, r0
 7f4:	61 1d       	adc	r22, r1
 7f6:	23 1f       	adc	r18, r19
 7f8:	84 9f       	mul	r24, r20
 7fa:	60 0d       	add	r22, r0
 7fc:	21 1d       	adc	r18, r1
 7fe:	82 2f       	mov	r24, r18
 800:	76 2f       	mov	r23, r22
 802:	6a 2f       	mov	r22, r26
 804:	11 24       	eor	r1, r1
 806:	9f 57       	subi	r25, 0x7F	; 127
 808:	50 40       	sbci	r21, 0x00	; 0
 80a:	9a f0       	brmi	.+38     	; 0x832 <__DATA_REGION_LENGTH__+0x32>
 80c:	f1 f0       	breq	.+60     	; 0x84a <__DATA_REGION_LENGTH__+0x4a>
 80e:	88 23       	and	r24, r24
 810:	4a f0       	brmi	.+18     	; 0x824 <__DATA_REGION_LENGTH__+0x24>
 812:	ee 0f       	add	r30, r30
 814:	ff 1f       	adc	r31, r31
 816:	bb 1f       	adc	r27, r27
 818:	66 1f       	adc	r22, r22
 81a:	77 1f       	adc	r23, r23
 81c:	88 1f       	adc	r24, r24
 81e:	91 50       	subi	r25, 0x01	; 1
 820:	50 40       	sbci	r21, 0x00	; 0
 822:	a9 f7       	brne	.-22     	; 0x80e <__DATA_REGION_LENGTH__+0xe>
 824:	9e 3f       	cpi	r25, 0xFE	; 254
 826:	51 05       	cpc	r21, r1
 828:	80 f0       	brcs	.+32     	; 0x84a <__DATA_REGION_LENGTH__+0x4a>
 82a:	0c 94 69 03 	jmp	0x6d2	; 0x6d2 <__fp_inf>
 82e:	0c 94 b4 03 	jmp	0x768	; 0x768 <__fp_szero>
 832:	5f 3f       	cpi	r21, 0xFF	; 255
 834:	e4 f3       	brlt	.-8      	; 0x82e <__DATA_REGION_LENGTH__+0x2e>
 836:	98 3e       	cpi	r25, 0xE8	; 232
 838:	d4 f3       	brlt	.-12     	; 0x82e <__DATA_REGION_LENGTH__+0x2e>
 83a:	86 95       	lsr	r24
 83c:	77 95       	ror	r23
 83e:	67 95       	ror	r22
 840:	b7 95       	ror	r27
 842:	f7 95       	ror	r31
 844:	e7 95       	ror	r30
 846:	9f 5f       	subi	r25, 0xFF	; 255
 848:	c1 f7       	brne	.-16     	; 0x83a <__DATA_REGION_LENGTH__+0x3a>
 84a:	fe 2b       	or	r31, r30
 84c:	88 0f       	add	r24, r24
 84e:	91 1d       	adc	r25, r1
 850:	96 95       	lsr	r25
 852:	87 95       	ror	r24
 854:	97 f9       	bld	r25, 7
 856:	08 95       	ret

00000858 <sprintf>:
 858:	ae e0       	ldi	r26, 0x0E	; 14
 85a:	b0 e0       	ldi	r27, 0x00	; 0
 85c:	e2 e3       	ldi	r30, 0x32	; 50
 85e:	f4 e0       	ldi	r31, 0x04	; 4
 860:	0c 94 ed 06 	jmp	0xdda	; 0xdda <__prologue_saves__+0x1c>
 864:	0d 89       	ldd	r16, Y+21	; 0x15
 866:	1e 89       	ldd	r17, Y+22	; 0x16
 868:	86 e0       	ldi	r24, 0x06	; 6
 86a:	8c 83       	std	Y+4, r24	; 0x04
 86c:	1a 83       	std	Y+2, r17	; 0x02
 86e:	09 83       	std	Y+1, r16	; 0x01
 870:	8f ef       	ldi	r24, 0xFF	; 255
 872:	9f e7       	ldi	r25, 0x7F	; 127
 874:	9e 83       	std	Y+6, r25	; 0x06
 876:	8d 83       	std	Y+5, r24	; 0x05
 878:	ae 01       	movw	r20, r28
 87a:	47 5e       	subi	r20, 0xE7	; 231
 87c:	5f 4f       	sbci	r21, 0xFF	; 255
 87e:	6f 89       	ldd	r22, Y+23	; 0x17
 880:	78 8d       	ldd	r23, Y+24	; 0x18
 882:	ce 01       	movw	r24, r28
 884:	01 96       	adiw	r24, 0x01	; 1
 886:	0e 94 4e 04 	call	0x89c	; 0x89c <vfprintf>
 88a:	ef 81       	ldd	r30, Y+7	; 0x07
 88c:	f8 85       	ldd	r31, Y+8	; 0x08
 88e:	e0 0f       	add	r30, r16
 890:	f1 1f       	adc	r31, r17
 892:	10 82       	st	Z, r1
 894:	2e 96       	adiw	r28, 0x0e	; 14
 896:	e4 e0       	ldi	r30, 0x04	; 4
 898:	0c 94 09 07 	jmp	0xe12	; 0xe12 <__epilogue_restores__+0x1c>

0000089c <vfprintf>:
 89c:	ab e0       	ldi	r26, 0x0B	; 11
 89e:	b0 e0       	ldi	r27, 0x00	; 0
 8a0:	e4 e5       	ldi	r30, 0x54	; 84
 8a2:	f4 e0       	ldi	r31, 0x04	; 4
 8a4:	0c 94 df 06 	jmp	0xdbe	; 0xdbe <__prologue_saves__>
 8a8:	6c 01       	movw	r12, r24
 8aa:	7b 01       	movw	r14, r22
 8ac:	8a 01       	movw	r16, r20
 8ae:	fc 01       	movw	r30, r24
 8b0:	17 82       	std	Z+7, r1	; 0x07
 8b2:	16 82       	std	Z+6, r1	; 0x06
 8b4:	83 81       	ldd	r24, Z+3	; 0x03
 8b6:	81 ff       	sbrs	r24, 1
 8b8:	cc c1       	rjmp	.+920    	; 0xc52 <__stack+0x353>
 8ba:	ce 01       	movw	r24, r28
 8bc:	01 96       	adiw	r24, 0x01	; 1
 8be:	3c 01       	movw	r6, r24
 8c0:	f6 01       	movw	r30, r12
 8c2:	93 81       	ldd	r25, Z+3	; 0x03
 8c4:	f7 01       	movw	r30, r14
 8c6:	93 fd       	sbrc	r25, 3
 8c8:	85 91       	lpm	r24, Z+
 8ca:	93 ff       	sbrs	r25, 3
 8cc:	81 91       	ld	r24, Z+
 8ce:	7f 01       	movw	r14, r30
 8d0:	88 23       	and	r24, r24
 8d2:	09 f4       	brne	.+2      	; 0x8d6 <vfprintf+0x3a>
 8d4:	ba c1       	rjmp	.+884    	; 0xc4a <__stack+0x34b>
 8d6:	85 32       	cpi	r24, 0x25	; 37
 8d8:	39 f4       	brne	.+14     	; 0x8e8 <vfprintf+0x4c>
 8da:	93 fd       	sbrc	r25, 3
 8dc:	85 91       	lpm	r24, Z+
 8de:	93 ff       	sbrs	r25, 3
 8e0:	81 91       	ld	r24, Z+
 8e2:	7f 01       	movw	r14, r30
 8e4:	85 32       	cpi	r24, 0x25	; 37
 8e6:	29 f4       	brne	.+10     	; 0x8f2 <vfprintf+0x56>
 8e8:	b6 01       	movw	r22, r12
 8ea:	90 e0       	ldi	r25, 0x00	; 0
 8ec:	0e 94 45 06 	call	0xc8a	; 0xc8a <fputc>
 8f0:	e7 cf       	rjmp	.-50     	; 0x8c0 <vfprintf+0x24>
 8f2:	91 2c       	mov	r9, r1
 8f4:	21 2c       	mov	r2, r1
 8f6:	31 2c       	mov	r3, r1
 8f8:	ff e1       	ldi	r31, 0x1F	; 31
 8fa:	f3 15       	cp	r31, r3
 8fc:	d8 f0       	brcs	.+54     	; 0x934 <__stack+0x35>
 8fe:	8b 32       	cpi	r24, 0x2B	; 43
 900:	79 f0       	breq	.+30     	; 0x920 <__stack+0x21>
 902:	38 f4       	brcc	.+14     	; 0x912 <__stack+0x13>
 904:	80 32       	cpi	r24, 0x20	; 32
 906:	79 f0       	breq	.+30     	; 0x926 <__stack+0x27>
 908:	83 32       	cpi	r24, 0x23	; 35
 90a:	a1 f4       	brne	.+40     	; 0x934 <__stack+0x35>
 90c:	23 2d       	mov	r18, r3
 90e:	20 61       	ori	r18, 0x10	; 16
 910:	1d c0       	rjmp	.+58     	; 0x94c <__stack+0x4d>
 912:	8d 32       	cpi	r24, 0x2D	; 45
 914:	61 f0       	breq	.+24     	; 0x92e <__stack+0x2f>
 916:	80 33       	cpi	r24, 0x30	; 48
 918:	69 f4       	brne	.+26     	; 0x934 <__stack+0x35>
 91a:	23 2d       	mov	r18, r3
 91c:	21 60       	ori	r18, 0x01	; 1
 91e:	16 c0       	rjmp	.+44     	; 0x94c <__stack+0x4d>
 920:	83 2d       	mov	r24, r3
 922:	82 60       	ori	r24, 0x02	; 2
 924:	38 2e       	mov	r3, r24
 926:	e3 2d       	mov	r30, r3
 928:	e4 60       	ori	r30, 0x04	; 4
 92a:	3e 2e       	mov	r3, r30
 92c:	2a c0       	rjmp	.+84     	; 0x982 <__stack+0x83>
 92e:	f3 2d       	mov	r31, r3
 930:	f8 60       	ori	r31, 0x08	; 8
 932:	1d c0       	rjmp	.+58     	; 0x96e <__stack+0x6f>
 934:	37 fc       	sbrc	r3, 7
 936:	2d c0       	rjmp	.+90     	; 0x992 <__stack+0x93>
 938:	20 ed       	ldi	r18, 0xD0	; 208
 93a:	28 0f       	add	r18, r24
 93c:	2a 30       	cpi	r18, 0x0A	; 10
 93e:	40 f0       	brcs	.+16     	; 0x950 <__stack+0x51>
 940:	8e 32       	cpi	r24, 0x2E	; 46
 942:	b9 f4       	brne	.+46     	; 0x972 <__stack+0x73>
 944:	36 fc       	sbrc	r3, 6
 946:	81 c1       	rjmp	.+770    	; 0xc4a <__stack+0x34b>
 948:	23 2d       	mov	r18, r3
 94a:	20 64       	ori	r18, 0x40	; 64
 94c:	32 2e       	mov	r3, r18
 94e:	19 c0       	rjmp	.+50     	; 0x982 <__stack+0x83>
 950:	36 fe       	sbrs	r3, 6
 952:	06 c0       	rjmp	.+12     	; 0x960 <__stack+0x61>
 954:	8a e0       	ldi	r24, 0x0A	; 10
 956:	98 9e       	mul	r9, r24
 958:	20 0d       	add	r18, r0
 95a:	11 24       	eor	r1, r1
 95c:	92 2e       	mov	r9, r18
 95e:	11 c0       	rjmp	.+34     	; 0x982 <__stack+0x83>
 960:	ea e0       	ldi	r30, 0x0A	; 10
 962:	2e 9e       	mul	r2, r30
 964:	20 0d       	add	r18, r0
 966:	11 24       	eor	r1, r1
 968:	22 2e       	mov	r2, r18
 96a:	f3 2d       	mov	r31, r3
 96c:	f0 62       	ori	r31, 0x20	; 32
 96e:	3f 2e       	mov	r3, r31
 970:	08 c0       	rjmp	.+16     	; 0x982 <__stack+0x83>
 972:	8c 36       	cpi	r24, 0x6C	; 108
 974:	21 f4       	brne	.+8      	; 0x97e <__stack+0x7f>
 976:	83 2d       	mov	r24, r3
 978:	80 68       	ori	r24, 0x80	; 128
 97a:	38 2e       	mov	r3, r24
 97c:	02 c0       	rjmp	.+4      	; 0x982 <__stack+0x83>
 97e:	88 36       	cpi	r24, 0x68	; 104
 980:	41 f4       	brne	.+16     	; 0x992 <__stack+0x93>
 982:	f7 01       	movw	r30, r14
 984:	93 fd       	sbrc	r25, 3
 986:	85 91       	lpm	r24, Z+
 988:	93 ff       	sbrs	r25, 3
 98a:	81 91       	ld	r24, Z+
 98c:	7f 01       	movw	r14, r30
 98e:	81 11       	cpse	r24, r1
 990:	b3 cf       	rjmp	.-154    	; 0x8f8 <vfprintf+0x5c>
 992:	98 2f       	mov	r25, r24
 994:	9f 7d       	andi	r25, 0xDF	; 223
 996:	95 54       	subi	r25, 0x45	; 69
 998:	93 30       	cpi	r25, 0x03	; 3
 99a:	28 f4       	brcc	.+10     	; 0x9a6 <__stack+0xa7>
 99c:	0c 5f       	subi	r16, 0xFC	; 252
 99e:	1f 4f       	sbci	r17, 0xFF	; 255
 9a0:	9f e3       	ldi	r25, 0x3F	; 63
 9a2:	99 83       	std	Y+1, r25	; 0x01
 9a4:	0d c0       	rjmp	.+26     	; 0x9c0 <__stack+0xc1>
 9a6:	83 36       	cpi	r24, 0x63	; 99
 9a8:	31 f0       	breq	.+12     	; 0x9b6 <__stack+0xb7>
 9aa:	83 37       	cpi	r24, 0x73	; 115
 9ac:	71 f0       	breq	.+28     	; 0x9ca <__stack+0xcb>
 9ae:	83 35       	cpi	r24, 0x53	; 83
 9b0:	09 f0       	breq	.+2      	; 0x9b4 <__stack+0xb5>
 9b2:	59 c0       	rjmp	.+178    	; 0xa66 <__stack+0x167>
 9b4:	21 c0       	rjmp	.+66     	; 0x9f8 <__stack+0xf9>
 9b6:	f8 01       	movw	r30, r16
 9b8:	80 81       	ld	r24, Z
 9ba:	89 83       	std	Y+1, r24	; 0x01
 9bc:	0e 5f       	subi	r16, 0xFE	; 254
 9be:	1f 4f       	sbci	r17, 0xFF	; 255
 9c0:	88 24       	eor	r8, r8
 9c2:	83 94       	inc	r8
 9c4:	91 2c       	mov	r9, r1
 9c6:	53 01       	movw	r10, r6
 9c8:	13 c0       	rjmp	.+38     	; 0x9f0 <__stack+0xf1>
 9ca:	28 01       	movw	r4, r16
 9cc:	f2 e0       	ldi	r31, 0x02	; 2
 9ce:	4f 0e       	add	r4, r31
 9d0:	51 1c       	adc	r5, r1
 9d2:	f8 01       	movw	r30, r16
 9d4:	a0 80       	ld	r10, Z
 9d6:	b1 80       	ldd	r11, Z+1	; 0x01
 9d8:	36 fe       	sbrs	r3, 6
 9da:	03 c0       	rjmp	.+6      	; 0x9e2 <__stack+0xe3>
 9dc:	69 2d       	mov	r22, r9
 9de:	70 e0       	ldi	r23, 0x00	; 0
 9e0:	02 c0       	rjmp	.+4      	; 0x9e6 <__stack+0xe7>
 9e2:	6f ef       	ldi	r22, 0xFF	; 255
 9e4:	7f ef       	ldi	r23, 0xFF	; 255
 9e6:	c5 01       	movw	r24, r10
 9e8:	0e 94 3a 06 	call	0xc74	; 0xc74 <strnlen>
 9ec:	4c 01       	movw	r8, r24
 9ee:	82 01       	movw	r16, r4
 9f0:	f3 2d       	mov	r31, r3
 9f2:	ff 77       	andi	r31, 0x7F	; 127
 9f4:	3f 2e       	mov	r3, r31
 9f6:	16 c0       	rjmp	.+44     	; 0xa24 <__stack+0x125>
 9f8:	28 01       	movw	r4, r16
 9fa:	22 e0       	ldi	r18, 0x02	; 2
 9fc:	42 0e       	add	r4, r18
 9fe:	51 1c       	adc	r5, r1
 a00:	f8 01       	movw	r30, r16
 a02:	a0 80       	ld	r10, Z
 a04:	b1 80       	ldd	r11, Z+1	; 0x01
 a06:	36 fe       	sbrs	r3, 6
 a08:	03 c0       	rjmp	.+6      	; 0xa10 <__stack+0x111>
 a0a:	69 2d       	mov	r22, r9
 a0c:	70 e0       	ldi	r23, 0x00	; 0
 a0e:	02 c0       	rjmp	.+4      	; 0xa14 <__stack+0x115>
 a10:	6f ef       	ldi	r22, 0xFF	; 255
 a12:	7f ef       	ldi	r23, 0xFF	; 255
 a14:	c5 01       	movw	r24, r10
 a16:	0e 94 2f 06 	call	0xc5e	; 0xc5e <strnlen_P>
 a1a:	4c 01       	movw	r8, r24
 a1c:	f3 2d       	mov	r31, r3
 a1e:	f0 68       	ori	r31, 0x80	; 128
 a20:	3f 2e       	mov	r3, r31
 a22:	82 01       	movw	r16, r4
 a24:	33 fc       	sbrc	r3, 3
 a26:	1b c0       	rjmp	.+54     	; 0xa5e <__stack+0x15f>
 a28:	82 2d       	mov	r24, r2
 a2a:	90 e0       	ldi	r25, 0x00	; 0
 a2c:	88 16       	cp	r8, r24
 a2e:	99 06       	cpc	r9, r25
 a30:	b0 f4       	brcc	.+44     	; 0xa5e <__stack+0x15f>
 a32:	b6 01       	movw	r22, r12
 a34:	80 e2       	ldi	r24, 0x20	; 32
 a36:	90 e0       	ldi	r25, 0x00	; 0
 a38:	0e 94 45 06 	call	0xc8a	; 0xc8a <fputc>
 a3c:	2a 94       	dec	r2
 a3e:	f4 cf       	rjmp	.-24     	; 0xa28 <__stack+0x129>
 a40:	f5 01       	movw	r30, r10
 a42:	37 fc       	sbrc	r3, 7
 a44:	85 91       	lpm	r24, Z+
 a46:	37 fe       	sbrs	r3, 7
 a48:	81 91       	ld	r24, Z+
 a4a:	5f 01       	movw	r10, r30
 a4c:	b6 01       	movw	r22, r12
 a4e:	90 e0       	ldi	r25, 0x00	; 0
 a50:	0e 94 45 06 	call	0xc8a	; 0xc8a <fputc>
 a54:	21 10       	cpse	r2, r1
 a56:	2a 94       	dec	r2
 a58:	21 e0       	ldi	r18, 0x01	; 1
 a5a:	82 1a       	sub	r8, r18
 a5c:	91 08       	sbc	r9, r1
 a5e:	81 14       	cp	r8, r1
 a60:	91 04       	cpc	r9, r1
 a62:	71 f7       	brne	.-36     	; 0xa40 <__stack+0x141>
 a64:	e8 c0       	rjmp	.+464    	; 0xc36 <__stack+0x337>
 a66:	84 36       	cpi	r24, 0x64	; 100
 a68:	11 f0       	breq	.+4      	; 0xa6e <__stack+0x16f>
 a6a:	89 36       	cpi	r24, 0x69	; 105
 a6c:	41 f5       	brne	.+80     	; 0xabe <__stack+0x1bf>
 a6e:	f8 01       	movw	r30, r16
 a70:	37 fe       	sbrs	r3, 7
 a72:	07 c0       	rjmp	.+14     	; 0xa82 <__stack+0x183>
 a74:	60 81       	ld	r22, Z
 a76:	71 81       	ldd	r23, Z+1	; 0x01
 a78:	82 81       	ldd	r24, Z+2	; 0x02
 a7a:	93 81       	ldd	r25, Z+3	; 0x03
 a7c:	0c 5f       	subi	r16, 0xFC	; 252
 a7e:	1f 4f       	sbci	r17, 0xFF	; 255
 a80:	08 c0       	rjmp	.+16     	; 0xa92 <__stack+0x193>
 a82:	60 81       	ld	r22, Z
 a84:	71 81       	ldd	r23, Z+1	; 0x01
 a86:	07 2e       	mov	r0, r23
 a88:	00 0c       	add	r0, r0
 a8a:	88 0b       	sbc	r24, r24
 a8c:	99 0b       	sbc	r25, r25
 a8e:	0e 5f       	subi	r16, 0xFE	; 254
 a90:	1f 4f       	sbci	r17, 0xFF	; 255
 a92:	f3 2d       	mov	r31, r3
 a94:	ff 76       	andi	r31, 0x6F	; 111
 a96:	3f 2e       	mov	r3, r31
 a98:	97 ff       	sbrs	r25, 7
 a9a:	09 c0       	rjmp	.+18     	; 0xaae <__stack+0x1af>
 a9c:	90 95       	com	r25
 a9e:	80 95       	com	r24
 aa0:	70 95       	com	r23
 aa2:	61 95       	neg	r22
 aa4:	7f 4f       	sbci	r23, 0xFF	; 255
 aa6:	8f 4f       	sbci	r24, 0xFF	; 255
 aa8:	9f 4f       	sbci	r25, 0xFF	; 255
 aaa:	f0 68       	ori	r31, 0x80	; 128
 aac:	3f 2e       	mov	r3, r31
 aae:	2a e0       	ldi	r18, 0x0A	; 10
 ab0:	30 e0       	ldi	r19, 0x00	; 0
 ab2:	a3 01       	movw	r20, r6
 ab4:	0e 94 81 06 	call	0xd02	; 0xd02 <__ultoa_invert>
 ab8:	88 2e       	mov	r8, r24
 aba:	86 18       	sub	r8, r6
 abc:	45 c0       	rjmp	.+138    	; 0xb48 <__stack+0x249>
 abe:	85 37       	cpi	r24, 0x75	; 117
 ac0:	31 f4       	brne	.+12     	; 0xace <__stack+0x1cf>
 ac2:	23 2d       	mov	r18, r3
 ac4:	2f 7e       	andi	r18, 0xEF	; 239
 ac6:	b2 2e       	mov	r11, r18
 ac8:	2a e0       	ldi	r18, 0x0A	; 10
 aca:	30 e0       	ldi	r19, 0x00	; 0
 acc:	25 c0       	rjmp	.+74     	; 0xb18 <__stack+0x219>
 ace:	93 2d       	mov	r25, r3
 ad0:	99 7f       	andi	r25, 0xF9	; 249
 ad2:	b9 2e       	mov	r11, r25
 ad4:	8f 36       	cpi	r24, 0x6F	; 111
 ad6:	c1 f0       	breq	.+48     	; 0xb08 <__stack+0x209>
 ad8:	18 f4       	brcc	.+6      	; 0xae0 <__stack+0x1e1>
 ada:	88 35       	cpi	r24, 0x58	; 88
 adc:	79 f0       	breq	.+30     	; 0xafc <__stack+0x1fd>
 ade:	b5 c0       	rjmp	.+362    	; 0xc4a <__stack+0x34b>
 ae0:	80 37       	cpi	r24, 0x70	; 112
 ae2:	19 f0       	breq	.+6      	; 0xaea <__stack+0x1eb>
 ae4:	88 37       	cpi	r24, 0x78	; 120
 ae6:	21 f0       	breq	.+8      	; 0xaf0 <__stack+0x1f1>
 ae8:	b0 c0       	rjmp	.+352    	; 0xc4a <__stack+0x34b>
 aea:	e9 2f       	mov	r30, r25
 aec:	e0 61       	ori	r30, 0x10	; 16
 aee:	be 2e       	mov	r11, r30
 af0:	b4 fe       	sbrs	r11, 4
 af2:	0d c0       	rjmp	.+26     	; 0xb0e <__stack+0x20f>
 af4:	fb 2d       	mov	r31, r11
 af6:	f4 60       	ori	r31, 0x04	; 4
 af8:	bf 2e       	mov	r11, r31
 afa:	09 c0       	rjmp	.+18     	; 0xb0e <__stack+0x20f>
 afc:	34 fe       	sbrs	r3, 4
 afe:	0a c0       	rjmp	.+20     	; 0xb14 <__stack+0x215>
 b00:	29 2f       	mov	r18, r25
 b02:	26 60       	ori	r18, 0x06	; 6
 b04:	b2 2e       	mov	r11, r18
 b06:	06 c0       	rjmp	.+12     	; 0xb14 <__stack+0x215>
 b08:	28 e0       	ldi	r18, 0x08	; 8
 b0a:	30 e0       	ldi	r19, 0x00	; 0
 b0c:	05 c0       	rjmp	.+10     	; 0xb18 <__stack+0x219>
 b0e:	20 e1       	ldi	r18, 0x10	; 16
 b10:	30 e0       	ldi	r19, 0x00	; 0
 b12:	02 c0       	rjmp	.+4      	; 0xb18 <__stack+0x219>
 b14:	20 e1       	ldi	r18, 0x10	; 16
 b16:	32 e0       	ldi	r19, 0x02	; 2
 b18:	f8 01       	movw	r30, r16
 b1a:	b7 fe       	sbrs	r11, 7
 b1c:	07 c0       	rjmp	.+14     	; 0xb2c <__stack+0x22d>
 b1e:	60 81       	ld	r22, Z
 b20:	71 81       	ldd	r23, Z+1	; 0x01
 b22:	82 81       	ldd	r24, Z+2	; 0x02
 b24:	93 81       	ldd	r25, Z+3	; 0x03
 b26:	0c 5f       	subi	r16, 0xFC	; 252
 b28:	1f 4f       	sbci	r17, 0xFF	; 255
 b2a:	06 c0       	rjmp	.+12     	; 0xb38 <__stack+0x239>
 b2c:	60 81       	ld	r22, Z
 b2e:	71 81       	ldd	r23, Z+1	; 0x01
 b30:	80 e0       	ldi	r24, 0x00	; 0
 b32:	90 e0       	ldi	r25, 0x00	; 0
 b34:	0e 5f       	subi	r16, 0xFE	; 254
 b36:	1f 4f       	sbci	r17, 0xFF	; 255
 b38:	a3 01       	movw	r20, r6
 b3a:	0e 94 81 06 	call	0xd02	; 0xd02 <__ultoa_invert>
 b3e:	88 2e       	mov	r8, r24
 b40:	86 18       	sub	r8, r6
 b42:	fb 2d       	mov	r31, r11
 b44:	ff 77       	andi	r31, 0x7F	; 127
 b46:	3f 2e       	mov	r3, r31
 b48:	36 fe       	sbrs	r3, 6
 b4a:	0d c0       	rjmp	.+26     	; 0xb66 <__stack+0x267>
 b4c:	23 2d       	mov	r18, r3
 b4e:	2e 7f       	andi	r18, 0xFE	; 254
 b50:	a2 2e       	mov	r10, r18
 b52:	89 14       	cp	r8, r9
 b54:	58 f4       	brcc	.+22     	; 0xb6c <__stack+0x26d>
 b56:	34 fe       	sbrs	r3, 4
 b58:	0b c0       	rjmp	.+22     	; 0xb70 <__stack+0x271>
 b5a:	32 fc       	sbrc	r3, 2
 b5c:	09 c0       	rjmp	.+18     	; 0xb70 <__stack+0x271>
 b5e:	83 2d       	mov	r24, r3
 b60:	8e 7e       	andi	r24, 0xEE	; 238
 b62:	a8 2e       	mov	r10, r24
 b64:	05 c0       	rjmp	.+10     	; 0xb70 <__stack+0x271>
 b66:	b8 2c       	mov	r11, r8
 b68:	a3 2c       	mov	r10, r3
 b6a:	03 c0       	rjmp	.+6      	; 0xb72 <__stack+0x273>
 b6c:	b8 2c       	mov	r11, r8
 b6e:	01 c0       	rjmp	.+2      	; 0xb72 <__stack+0x273>
 b70:	b9 2c       	mov	r11, r9
 b72:	a4 fe       	sbrs	r10, 4
 b74:	0f c0       	rjmp	.+30     	; 0xb94 <__stack+0x295>
 b76:	fe 01       	movw	r30, r28
 b78:	e8 0d       	add	r30, r8
 b7a:	f1 1d       	adc	r31, r1
 b7c:	80 81       	ld	r24, Z
 b7e:	80 33       	cpi	r24, 0x30	; 48
 b80:	21 f4       	brne	.+8      	; 0xb8a <__stack+0x28b>
 b82:	9a 2d       	mov	r25, r10
 b84:	99 7e       	andi	r25, 0xE9	; 233
 b86:	a9 2e       	mov	r10, r25
 b88:	09 c0       	rjmp	.+18     	; 0xb9c <__stack+0x29d>
 b8a:	a2 fe       	sbrs	r10, 2
 b8c:	06 c0       	rjmp	.+12     	; 0xb9a <__stack+0x29b>
 b8e:	b3 94       	inc	r11
 b90:	b3 94       	inc	r11
 b92:	04 c0       	rjmp	.+8      	; 0xb9c <__stack+0x29d>
 b94:	8a 2d       	mov	r24, r10
 b96:	86 78       	andi	r24, 0x86	; 134
 b98:	09 f0       	breq	.+2      	; 0xb9c <__stack+0x29d>
 b9a:	b3 94       	inc	r11
 b9c:	a3 fc       	sbrc	r10, 3
 b9e:	11 c0       	rjmp	.+34     	; 0xbc2 <__stack+0x2c3>
 ba0:	a0 fe       	sbrs	r10, 0
 ba2:	06 c0       	rjmp	.+12     	; 0xbb0 <__stack+0x2b1>
 ba4:	b2 14       	cp	r11, r2
 ba6:	88 f4       	brcc	.+34     	; 0xbca <__stack+0x2cb>
 ba8:	28 0c       	add	r2, r8
 baa:	92 2c       	mov	r9, r2
 bac:	9b 18       	sub	r9, r11
 bae:	0e c0       	rjmp	.+28     	; 0xbcc <__stack+0x2cd>
 bb0:	b2 14       	cp	r11, r2
 bb2:	60 f4       	brcc	.+24     	; 0xbcc <__stack+0x2cd>
 bb4:	b6 01       	movw	r22, r12
 bb6:	80 e2       	ldi	r24, 0x20	; 32
 bb8:	90 e0       	ldi	r25, 0x00	; 0
 bba:	0e 94 45 06 	call	0xc8a	; 0xc8a <fputc>
 bbe:	b3 94       	inc	r11
 bc0:	f7 cf       	rjmp	.-18     	; 0xbb0 <__stack+0x2b1>
 bc2:	b2 14       	cp	r11, r2
 bc4:	18 f4       	brcc	.+6      	; 0xbcc <__stack+0x2cd>
 bc6:	2b 18       	sub	r2, r11
 bc8:	02 c0       	rjmp	.+4      	; 0xbce <__stack+0x2cf>
 bca:	98 2c       	mov	r9, r8
 bcc:	21 2c       	mov	r2, r1
 bce:	a4 fe       	sbrs	r10, 4
 bd0:	10 c0       	rjmp	.+32     	; 0xbf2 <__stack+0x2f3>
 bd2:	b6 01       	movw	r22, r12
 bd4:	80 e3       	ldi	r24, 0x30	; 48
 bd6:	90 e0       	ldi	r25, 0x00	; 0
 bd8:	0e 94 45 06 	call	0xc8a	; 0xc8a <fputc>
 bdc:	a2 fe       	sbrs	r10, 2
 bde:	17 c0       	rjmp	.+46     	; 0xc0e <__stack+0x30f>
 be0:	a1 fc       	sbrc	r10, 1
 be2:	03 c0       	rjmp	.+6      	; 0xbea <__stack+0x2eb>
 be4:	88 e7       	ldi	r24, 0x78	; 120
 be6:	90 e0       	ldi	r25, 0x00	; 0
 be8:	02 c0       	rjmp	.+4      	; 0xbee <__stack+0x2ef>
 bea:	88 e5       	ldi	r24, 0x58	; 88
 bec:	90 e0       	ldi	r25, 0x00	; 0
 bee:	b6 01       	movw	r22, r12
 bf0:	0c c0       	rjmp	.+24     	; 0xc0a <__stack+0x30b>
 bf2:	8a 2d       	mov	r24, r10
 bf4:	86 78       	andi	r24, 0x86	; 134
 bf6:	59 f0       	breq	.+22     	; 0xc0e <__stack+0x30f>
 bf8:	a1 fe       	sbrs	r10, 1
 bfa:	02 c0       	rjmp	.+4      	; 0xc00 <__stack+0x301>
 bfc:	8b e2       	ldi	r24, 0x2B	; 43
 bfe:	01 c0       	rjmp	.+2      	; 0xc02 <__stack+0x303>
 c00:	80 e2       	ldi	r24, 0x20	; 32
 c02:	a7 fc       	sbrc	r10, 7
 c04:	8d e2       	ldi	r24, 0x2D	; 45
 c06:	b6 01       	movw	r22, r12
 c08:	90 e0       	ldi	r25, 0x00	; 0
 c0a:	0e 94 45 06 	call	0xc8a	; 0xc8a <fputc>
 c0e:	89 14       	cp	r8, r9
 c10:	38 f4       	brcc	.+14     	; 0xc20 <__stack+0x321>
 c12:	b6 01       	movw	r22, r12
 c14:	80 e3       	ldi	r24, 0x30	; 48
 c16:	90 e0       	ldi	r25, 0x00	; 0
 c18:	0e 94 45 06 	call	0xc8a	; 0xc8a <fputc>
 c1c:	9a 94       	dec	r9
 c1e:	f7 cf       	rjmp	.-18     	; 0xc0e <__stack+0x30f>
 c20:	8a 94       	dec	r8
 c22:	f3 01       	movw	r30, r6
 c24:	e8 0d       	add	r30, r8
 c26:	f1 1d       	adc	r31, r1
 c28:	80 81       	ld	r24, Z
 c2a:	b6 01       	movw	r22, r12
 c2c:	90 e0       	ldi	r25, 0x00	; 0
 c2e:	0e 94 45 06 	call	0xc8a	; 0xc8a <fputc>
 c32:	81 10       	cpse	r8, r1
 c34:	f5 cf       	rjmp	.-22     	; 0xc20 <__stack+0x321>
 c36:	22 20       	and	r2, r2
 c38:	09 f4       	brne	.+2      	; 0xc3c <__stack+0x33d>
 c3a:	42 ce       	rjmp	.-892    	; 0x8c0 <vfprintf+0x24>
 c3c:	b6 01       	movw	r22, r12
 c3e:	80 e2       	ldi	r24, 0x20	; 32
 c40:	90 e0       	ldi	r25, 0x00	; 0
 c42:	0e 94 45 06 	call	0xc8a	; 0xc8a <fputc>
 c46:	2a 94       	dec	r2
 c48:	f6 cf       	rjmp	.-20     	; 0xc36 <__stack+0x337>
 c4a:	f6 01       	movw	r30, r12
 c4c:	86 81       	ldd	r24, Z+6	; 0x06
 c4e:	97 81       	ldd	r25, Z+7	; 0x07
 c50:	02 c0       	rjmp	.+4      	; 0xc56 <__stack+0x357>
 c52:	8f ef       	ldi	r24, 0xFF	; 255
 c54:	9f ef       	ldi	r25, 0xFF	; 255
 c56:	2b 96       	adiw	r28, 0x0b	; 11
 c58:	e2 e1       	ldi	r30, 0x12	; 18
 c5a:	0c 94 fb 06 	jmp	0xdf6	; 0xdf6 <__epilogue_restores__>

00000c5e <strnlen_P>:
 c5e:	fc 01       	movw	r30, r24
 c60:	05 90       	lpm	r0, Z+
 c62:	61 50       	subi	r22, 0x01	; 1
 c64:	70 40       	sbci	r23, 0x00	; 0
 c66:	01 10       	cpse	r0, r1
 c68:	d8 f7       	brcc	.-10     	; 0xc60 <strnlen_P+0x2>
 c6a:	80 95       	com	r24
 c6c:	90 95       	com	r25
 c6e:	8e 0f       	add	r24, r30
 c70:	9f 1f       	adc	r25, r31
 c72:	08 95       	ret

00000c74 <strnlen>:
 c74:	fc 01       	movw	r30, r24
 c76:	61 50       	subi	r22, 0x01	; 1
 c78:	70 40       	sbci	r23, 0x00	; 0
 c7a:	01 90       	ld	r0, Z+
 c7c:	01 10       	cpse	r0, r1
 c7e:	d8 f7       	brcc	.-10     	; 0xc76 <strnlen+0x2>
 c80:	80 95       	com	r24
 c82:	90 95       	com	r25
 c84:	8e 0f       	add	r24, r30
 c86:	9f 1f       	adc	r25, r31
 c88:	08 95       	ret

00000c8a <fputc>:
 c8a:	0f 93       	push	r16
 c8c:	1f 93       	push	r17
 c8e:	cf 93       	push	r28
 c90:	df 93       	push	r29
 c92:	fb 01       	movw	r30, r22
 c94:	23 81       	ldd	r18, Z+3	; 0x03
 c96:	21 fd       	sbrc	r18, 1
 c98:	03 c0       	rjmp	.+6      	; 0xca0 <fputc+0x16>
 c9a:	8f ef       	ldi	r24, 0xFF	; 255
 c9c:	9f ef       	ldi	r25, 0xFF	; 255
 c9e:	2c c0       	rjmp	.+88     	; 0xcf8 <fputc+0x6e>
 ca0:	22 ff       	sbrs	r18, 2
 ca2:	16 c0       	rjmp	.+44     	; 0xcd0 <fputc+0x46>
 ca4:	46 81       	ldd	r20, Z+6	; 0x06
 ca6:	57 81       	ldd	r21, Z+7	; 0x07
 ca8:	24 81       	ldd	r18, Z+4	; 0x04
 caa:	35 81       	ldd	r19, Z+5	; 0x05
 cac:	42 17       	cp	r20, r18
 cae:	53 07       	cpc	r21, r19
 cb0:	44 f4       	brge	.+16     	; 0xcc2 <fputc+0x38>
 cb2:	a0 81       	ld	r26, Z
 cb4:	b1 81       	ldd	r27, Z+1	; 0x01
 cb6:	9d 01       	movw	r18, r26
 cb8:	2f 5f       	subi	r18, 0xFF	; 255
 cba:	3f 4f       	sbci	r19, 0xFF	; 255
 cbc:	31 83       	std	Z+1, r19	; 0x01
 cbe:	20 83       	st	Z, r18
 cc0:	8c 93       	st	X, r24
 cc2:	26 81       	ldd	r18, Z+6	; 0x06
 cc4:	37 81       	ldd	r19, Z+7	; 0x07
 cc6:	2f 5f       	subi	r18, 0xFF	; 255
 cc8:	3f 4f       	sbci	r19, 0xFF	; 255
 cca:	37 83       	std	Z+7, r19	; 0x07
 ccc:	26 83       	std	Z+6, r18	; 0x06
 cce:	14 c0       	rjmp	.+40     	; 0xcf8 <fputc+0x6e>
 cd0:	8b 01       	movw	r16, r22
 cd2:	ec 01       	movw	r28, r24
 cd4:	fb 01       	movw	r30, r22
 cd6:	00 84       	ldd	r0, Z+8	; 0x08
 cd8:	f1 85       	ldd	r31, Z+9	; 0x09
 cda:	e0 2d       	mov	r30, r0
 cdc:	09 95       	icall
 cde:	89 2b       	or	r24, r25
 ce0:	e1 f6       	brne	.-72     	; 0xc9a <fputc+0x10>
 ce2:	d8 01       	movw	r26, r16
 ce4:	16 96       	adiw	r26, 0x06	; 6
 ce6:	8d 91       	ld	r24, X+
 ce8:	9c 91       	ld	r25, X
 cea:	17 97       	sbiw	r26, 0x07	; 7
 cec:	01 96       	adiw	r24, 0x01	; 1
 cee:	17 96       	adiw	r26, 0x07	; 7
 cf0:	9c 93       	st	X, r25
 cf2:	8e 93       	st	-X, r24
 cf4:	16 97       	sbiw	r26, 0x06	; 6
 cf6:	ce 01       	movw	r24, r28
 cf8:	df 91       	pop	r29
 cfa:	cf 91       	pop	r28
 cfc:	1f 91       	pop	r17
 cfe:	0f 91       	pop	r16
 d00:	08 95       	ret

00000d02 <__ultoa_invert>:
 d02:	fa 01       	movw	r30, r20
 d04:	aa 27       	eor	r26, r26
 d06:	28 30       	cpi	r18, 0x08	; 8
 d08:	51 f1       	breq	.+84     	; 0xd5e <__ultoa_invert+0x5c>
 d0a:	20 31       	cpi	r18, 0x10	; 16
 d0c:	81 f1       	breq	.+96     	; 0xd6e <__ultoa_invert+0x6c>
 d0e:	e8 94       	clt
 d10:	6f 93       	push	r22
 d12:	6e 7f       	andi	r22, 0xFE	; 254
 d14:	6e 5f       	subi	r22, 0xFE	; 254
 d16:	7f 4f       	sbci	r23, 0xFF	; 255
 d18:	8f 4f       	sbci	r24, 0xFF	; 255
 d1a:	9f 4f       	sbci	r25, 0xFF	; 255
 d1c:	af 4f       	sbci	r26, 0xFF	; 255
 d1e:	b1 e0       	ldi	r27, 0x01	; 1
 d20:	3e d0       	rcall	.+124    	; 0xd9e <__ultoa_invert+0x9c>
 d22:	b4 e0       	ldi	r27, 0x04	; 4
 d24:	3c d0       	rcall	.+120    	; 0xd9e <__ultoa_invert+0x9c>
 d26:	67 0f       	add	r22, r23
 d28:	78 1f       	adc	r23, r24
 d2a:	89 1f       	adc	r24, r25
 d2c:	9a 1f       	adc	r25, r26
 d2e:	a1 1d       	adc	r26, r1
 d30:	68 0f       	add	r22, r24
 d32:	79 1f       	adc	r23, r25
 d34:	8a 1f       	adc	r24, r26
 d36:	91 1d       	adc	r25, r1
 d38:	a1 1d       	adc	r26, r1
 d3a:	6a 0f       	add	r22, r26
 d3c:	71 1d       	adc	r23, r1
 d3e:	81 1d       	adc	r24, r1
 d40:	91 1d       	adc	r25, r1
 d42:	a1 1d       	adc	r26, r1
 d44:	20 d0       	rcall	.+64     	; 0xd86 <__ultoa_invert+0x84>
 d46:	09 f4       	brne	.+2      	; 0xd4a <__ultoa_invert+0x48>
 d48:	68 94       	set
 d4a:	3f 91       	pop	r19
 d4c:	2a e0       	ldi	r18, 0x0A	; 10
 d4e:	26 9f       	mul	r18, r22
 d50:	11 24       	eor	r1, r1
 d52:	30 19       	sub	r19, r0
 d54:	30 5d       	subi	r19, 0xD0	; 208
 d56:	31 93       	st	Z+, r19
 d58:	de f6       	brtc	.-74     	; 0xd10 <__ultoa_invert+0xe>
 d5a:	cf 01       	movw	r24, r30
 d5c:	08 95       	ret
 d5e:	46 2f       	mov	r20, r22
 d60:	47 70       	andi	r20, 0x07	; 7
 d62:	40 5d       	subi	r20, 0xD0	; 208
 d64:	41 93       	st	Z+, r20
 d66:	b3 e0       	ldi	r27, 0x03	; 3
 d68:	0f d0       	rcall	.+30     	; 0xd88 <__ultoa_invert+0x86>
 d6a:	c9 f7       	brne	.-14     	; 0xd5e <__ultoa_invert+0x5c>
 d6c:	f6 cf       	rjmp	.-20     	; 0xd5a <__ultoa_invert+0x58>
 d6e:	46 2f       	mov	r20, r22
 d70:	4f 70       	andi	r20, 0x0F	; 15
 d72:	40 5d       	subi	r20, 0xD0	; 208
 d74:	4a 33       	cpi	r20, 0x3A	; 58
 d76:	18 f0       	brcs	.+6      	; 0xd7e <__ultoa_invert+0x7c>
 d78:	49 5d       	subi	r20, 0xD9	; 217
 d7a:	31 fd       	sbrc	r19, 1
 d7c:	40 52       	subi	r20, 0x20	; 32
 d7e:	41 93       	st	Z+, r20
 d80:	02 d0       	rcall	.+4      	; 0xd86 <__ultoa_invert+0x84>
 d82:	a9 f7       	brne	.-22     	; 0xd6e <__ultoa_invert+0x6c>
 d84:	ea cf       	rjmp	.-44     	; 0xd5a <__ultoa_invert+0x58>
 d86:	b4 e0       	ldi	r27, 0x04	; 4
 d88:	a6 95       	lsr	r26
 d8a:	97 95       	ror	r25
 d8c:	87 95       	ror	r24
 d8e:	77 95       	ror	r23
 d90:	67 95       	ror	r22
 d92:	ba 95       	dec	r27
 d94:	c9 f7       	brne	.-14     	; 0xd88 <__ultoa_invert+0x86>
 d96:	00 97       	sbiw	r24, 0x00	; 0
 d98:	61 05       	cpc	r22, r1
 d9a:	71 05       	cpc	r23, r1
 d9c:	08 95       	ret
 d9e:	9b 01       	movw	r18, r22
 da0:	ac 01       	movw	r20, r24
 da2:	0a 2e       	mov	r0, r26
 da4:	06 94       	lsr	r0
 da6:	57 95       	ror	r21
 da8:	47 95       	ror	r20
 daa:	37 95       	ror	r19
 dac:	27 95       	ror	r18
 dae:	ba 95       	dec	r27
 db0:	c9 f7       	brne	.-14     	; 0xda4 <__ultoa_invert+0xa2>
 db2:	62 0f       	add	r22, r18
 db4:	73 1f       	adc	r23, r19
 db6:	84 1f       	adc	r24, r20
 db8:	95 1f       	adc	r25, r21
 dba:	a0 1d       	adc	r26, r0
 dbc:	08 95       	ret

00000dbe <__prologue_saves__>:
 dbe:	2f 92       	push	r2
 dc0:	3f 92       	push	r3
 dc2:	4f 92       	push	r4
 dc4:	5f 92       	push	r5
 dc6:	6f 92       	push	r6
 dc8:	7f 92       	push	r7
 dca:	8f 92       	push	r8
 dcc:	9f 92       	push	r9
 dce:	af 92       	push	r10
 dd0:	bf 92       	push	r11
 dd2:	cf 92       	push	r12
 dd4:	df 92       	push	r13
 dd6:	ef 92       	push	r14
 dd8:	ff 92       	push	r15
 dda:	0f 93       	push	r16
 ddc:	1f 93       	push	r17
 dde:	cf 93       	push	r28
 de0:	df 93       	push	r29
 de2:	cd b7       	in	r28, 0x3d	; 61
 de4:	de b7       	in	r29, 0x3e	; 62
 de6:	ca 1b       	sub	r28, r26
 de8:	db 0b       	sbc	r29, r27
 dea:	0f b6       	in	r0, 0x3f	; 63
 dec:	f8 94       	cli
 dee:	de bf       	out	0x3e, r29	; 62
 df0:	0f be       	out	0x3f, r0	; 63
 df2:	cd bf       	out	0x3d, r28	; 61
 df4:	09 94       	ijmp

00000df6 <__epilogue_restores__>:
 df6:	2a 88       	ldd	r2, Y+18	; 0x12
 df8:	39 88       	ldd	r3, Y+17	; 0x11
 dfa:	48 88       	ldd	r4, Y+16	; 0x10
 dfc:	5f 84       	ldd	r5, Y+15	; 0x0f
 dfe:	6e 84       	ldd	r6, Y+14	; 0x0e
 e00:	7d 84       	ldd	r7, Y+13	; 0x0d
 e02:	8c 84       	ldd	r8, Y+12	; 0x0c
 e04:	9b 84       	ldd	r9, Y+11	; 0x0b
 e06:	aa 84       	ldd	r10, Y+10	; 0x0a
 e08:	b9 84       	ldd	r11, Y+9	; 0x09
 e0a:	c8 84       	ldd	r12, Y+8	; 0x08
 e0c:	df 80       	ldd	r13, Y+7	; 0x07
 e0e:	ee 80       	ldd	r14, Y+6	; 0x06
 e10:	fd 80       	ldd	r15, Y+5	; 0x05
 e12:	0c 81       	ldd	r16, Y+4	; 0x04
 e14:	1b 81       	ldd	r17, Y+3	; 0x03
 e16:	aa 81       	ldd	r26, Y+2	; 0x02
 e18:	b9 81       	ldd	r27, Y+1	; 0x01
 e1a:	ce 0f       	add	r28, r30
 e1c:	d1 1d       	adc	r29, r1
 e1e:	0f b6       	in	r0, 0x3f	; 63
 e20:	f8 94       	cli
 e22:	de bf       	out	0x3e, r29	; 62
 e24:	0f be       	out	0x3f, r0	; 63
 e26:	cd bf       	out	0x3d, r28	; 61
 e28:	ed 01       	movw	r28, r26
 e2a:	08 95       	ret

00000e2c <_exit>:
 e2c:	f8 94       	cli

00000e2e <__stop_program>:
 e2e:	ff cf       	rjmp	.-2      	; 0xe2e <__stop_program>
